
========================================================================

** ELF Header Information

    File Name: bin\pdm_fft.axf

    Machine class: ELFCLASS32 (32-bit)
    Data encoding: ELFDATA2LSB (Little endian)
    Header version: EV_CURRENT (Current version)
    Operating System ABI: none
    ABI Version: 0
    File Type: ET_EXEC (Executable) (2)
    Machine: EM_ARM (ARM)

    Image Entry point: 0x0000c139
    Flags: EF_ARM_HASENTRY + EF_ARM_ABI_FLOAT_HARD (0x05000402)

    ARM ELF revision: 5 (ABI version 2)

    Conforms to Hard float procedure-call standard

    Built with
    Component: ARM Compiler 5.06 update 6 (build 750) Tool: armasm [4d35ec]
    Component: ARM Compiler 5.06 update 6 (build 750) Tool: armlink [4d35ed]

    Header size: 52 bytes (0x34)
    Program header entry size: 32 bytes (0x20)
    Section header entry size: 40 bytes (0x28)

    Program header entries: 1
    Section header entries: 16

    Program header offset: 573548 (0x0008c06c)
    Section header offset: 573580 (0x0008c08c)

    Section header string table index: 15

========================================================================

** Program header #0 (PT_LOAD) [PF_X + PF_W + PF_R + PF_ARM_ENTRY]
    Size : 48744 bytes (10232 bytes in file)
    Virtual address: 0x0000c000 (Alignment 8)


========================================================================

** Section #1 'FLASH' (SHT_PROGBITS) [SHF_ALLOC + SHF_EXECINSTR]
    Size   : 10080 bytes (alignment 8)
    Address: 0x0000c000

    $d
    RESET
    __Vectors
        0x0000c000:    10001098    ....    DCD    268439704
        0x0000c004:    0000c101    ....    DCD    49409
        0x0000c008:    0000c11f    ....    DCD    49439
        0x0000c00c:    0000c1d9    ....    DCD    49625
        0x0000c010:    0000c121    !...    DCD    49441
        0x0000c014:    0000c123    #...    DCD    49443
        0x0000c018:    0000c125    %...    DCD    49445
        0x0000c01c:    0000c127    '...    DCD    49447
        0x0000c020:    00000000    ....    DCD    0
        0x0000c024:    00000000    ....    DCD    0
        0x0000c028:    00000000    ....    DCD    0
        0x0000c02c:    0000c129    )...    DCD    49449
        0x0000c030:    0000c12b    +...    DCD    49451
        0x0000c034:    00000000    ....    DCD    0
        0x0000c038:    0000c12d    -...    DCD    49453
        0x0000c03c:    0000c12f    /...    DCD    49455
        0x0000c040:    0000c131    1...    DCD    49457
        0x0000c044:    0000c131    1...    DCD    49457
        0x0000c048:    0000c131    1...    DCD    49457
        0x0000c04c:    0000c131    1...    DCD    49457
        0x0000c050:    0000c131    1...    DCD    49457
        0x0000c054:    0000c131    1...    DCD    49457
        0x0000c058:    0000c131    1...    DCD    49457
        0x0000c05c:    0000c131    1...    DCD    49457
        0x0000c060:    0000c131    1...    DCD    49457
        0x0000c064:    0000c131    1...    DCD    49457
        0x0000c068:    0000c131    1...    DCD    49457
        0x0000c06c:    0000c131    1...    DCD    49457
        0x0000c070:    0000c131    1...    DCD    49457
        0x0000c074:    0000c131    1...    DCD    49457
        0x0000c078:    0000c131    1...    DCD    49457
        0x0000c07c:    0000c131    1...    DCD    49457
        0x0000c080:    0000c131    1...    DCD    49457
        0x0000c084:    0000c131    1...    DCD    49457
        0x0000c088:    0000c131    1...    DCD    49457
        0x0000c08c:    0000cfe1    ....    DCD    53217
        0x0000c090:    0000c131    1...    DCD    49457
        0x0000c094:    0000c131    1...    DCD    49457
        0x0000c098:    0000c131    1...    DCD    49457
        0x0000c09c:    0000c131    1...    DCD    49457
        0x0000c0a0:    0000c131    1...    DCD    49457
        0x0000c0a4:    0000c131    1...    DCD    49457
        0x0000c0a8:    0000c131    1...    DCD    49457
        0x0000c0ac:    0000c131    1...    DCD    49457
        0x0000c0b0:    0000c131    1...    DCD    49457
        0x0000c0b4:    0000c131    1...    DCD    49457
        0x0000c0b8:    0000c131    1...    DCD    49457
        0x0000c0bc:    0000c131    1...    DCD    49457
    __Patchable
        0x0000c0c0:    00000000    ....    DCD    0
        0x0000c0c4:    00000000    ....    DCD    0
        0x0000c0c8:    00000000    ....    DCD    0
        0x0000c0cc:    00000000    ....    DCD    0
        0x0000c0d0:    00000000    ....    DCD    0
        0x0000c0d4:    00000000    ....    DCD    0
        0x0000c0d8:    00000000    ....    DCD    0
        0x0000c0dc:    00000000    ....    DCD    0
        0x0000c0e0:    00000000    ....    DCD    0
        0x0000c0e4:    00000000    ....    DCD    0
        0x0000c0e8:    00000000    ....    DCD    0
        0x0000c0ec:    00000000    ....    DCD    0
        0x0000c0f0:    00000000    ....    DCD    0
        0x0000c0f4:    00000000    ....    DCD    0
        0x0000c0f8:    00000000    ....    DCD    0
        0x0000c0fc:    00000000    ....    DCD    0
    $t
    $v0
    Reset_Handler
        0x0000c100:    f64e5088    N..P    MOV      r0,#0xed88
        0x0000c104:    f2ce0000    ....    MOVT     r0,#0xe000
        0x0000c108:    6801        .h      LDR      r1,[r0,#0]
        0x0000c10a:    f4410170    A.p.    ORR      r1,r1,#0xf00000
        0x0000c10e:    6001        .`      STR      r1,[r0,#0]
        0x0000c110:    f3bf8f4f    ..O.    DSB      
        0x0000c114:    f3bf8f6f    ..o.    ISB      
        0x0000c118:    4806        .H      LDR      r0,[pc,#24] ; [0xc134] = 0xc139
        0x0000c11a:    4700        .G      BX       r0
        0x0000c11c:    e7fe        ..      B        0xc11c ; Reset_Handler + 28
    NMI_Handler
        0x0000c11e:    e7fe        ..      B        NMI_Handler ; 0xc11e
    MemManage_Handler
        0x0000c120:    e7fe        ..      B        MemManage_Handler ; 0xc120
    BusFault_Handler
        0x0000c122:    e7fe        ..      B        BusFault_Handler ; 0xc122
    UsageFault_Handler
        0x0000c124:    e7fe        ..      B        UsageFault_Handler ; 0xc124
    SecureFault_Handler
        0x0000c126:    e7fe        ..      B        SecureFault_Handler ; 0xc126
    SVC_Handler
        0x0000c128:    e7fe        ..      B        SVC_Handler ; 0xc128
    DebugMon_Handler
        0x0000c12a:    e7fe        ..      B        DebugMon_Handler ; 0xc12a
    PendSV_Handler
        0x0000c12c:    e7fe        ..      B        PendSV_Handler ; 0xc12c
    SysTick_Handler
        0x0000c12e:    e7fe        ..      B        SysTick_Handler ; 0xc12e
    am_adc_isr
    am_ble_isr
    am_brownout_isr
    am_clkgen_isr
    am_ctimer_isr
    am_gpio_isr
    am_iomaster0_isr
    am_iomaster1_isr
    am_iomaster2_isr
    am_iomaster3_isr
    am_iomaster4_isr
    am_iomaster5_isr
    am_ioslave_acc_isr
    am_ioslave_ios_isr
    am_mspi0_isr
    am_rtc_isr
    am_scard_isr
    am_software0_isr
    am_stimer_cmpr0_isr
    am_stimer_cmpr1_isr
    am_stimer_cmpr2_isr
    am_stimer_cmpr3_isr
    am_stimer_cmpr4_isr
    am_stimer_cmpr5_isr
    am_stimer_cmpr6_isr
    am_stimer_cmpr7_isr
    am_stimer_isr
    am_uart0_isr
    am_uart1_isr
    am_uart_isr
    am_vcomp_isr
    am_watchdog_isr
        0x0000c130:    e7fe        ..      B        am_adc_isr ; 0xc130
    $d
        0x0000c132:    0000        ..      DCW    0
        0x0000c134:    0000c139    9...    DCD    49465
    $t
    !!!main
    __main
        0x0000c138:    f000f802    ....    BL       __scatterload ; 0xc140
        0x0000c13c:    f000f83c    ..<.    BL       __rt_entry ; 0xc1b8
    !!!scatter
    __scatterload
    __scatterload_rt2
    __scatterload_rt2_thumb_only
        0x0000c140:    a00a        ..      ADR      r0,{pc}+0x2c ; 0xc16c
        0x0000c142:    e8900c00    ....    LDM      r0,{r10,r11}
        0x0000c146:    4482        .D      ADD      r10,r10,r0
        0x0000c148:    4483        .D      ADD      r11,r11,r0
        0x0000c14a:    f1aa0701    ....    SUB      r7,r10,#1
    __scatterload_null
        0x0000c14e:    45da        .E      CMP      r10,r11
        0x0000c150:    d101        ..      BNE      0xc156 ; __scatterload_null + 8
        0x0000c152:    f000f831    ..1.    BL       __rt_entry ; 0xc1b8
        0x0000c156:    f2af0e09    ....    ADR      lr,{pc}-7 ; 0xc14f
        0x0000c15a:    e8ba000f    ....    LDM      r10!,{r0-r3}
        0x0000c15e:    f0130f01    ....    TST      r3,#1
        0x0000c162:    bf18        ..      IT       NE
        0x0000c164:    1afb        ..      SUBNE    r3,r7,r3
        0x0000c166:    f0430301    C...    ORR      r3,r3,#1
        0x0000c16a:    4718        .G      BX       r3
    $d
        0x0000c16c:    000025d4    .%..    DCD    9684
        0x0000c170:    000025f4    .%..    DCD    9716
    $t
    !!handler_copy
    __scatterload_copy
        0x0000c174:    3a10        .:      SUBS     r2,r2,#0x10
        0x0000c176:    bf24        $.      ITT      CS
        0x0000c178:    c878        x.      LDMCS    r0!,{r3-r6}
        0x0000c17a:    c178        x.      STMCS    r1!,{r3-r6}
        0x0000c17c:    d8fa        ..      BHI      __scatterload_copy ; 0xc174
        0x0000c17e:    0752        R.      LSLS     r2,r2,#29
        0x0000c180:    bf24        $.      ITT      CS
        0x0000c182:    c830        0.      LDMCS    r0!,{r4,r5}
        0x0000c184:    c130        0.      STMCS    r1!,{r4,r5}
        0x0000c186:    bf44        D.      ITT      MI
        0x0000c188:    6804        .h      LDRMI    r4,[r0,#0]
        0x0000c18a:    600c        .`      STRMI    r4,[r1,#0]
        0x0000c18c:    4770        pG      BX       lr
        0x0000c18e:    0000        ..      MOVS     r0,r0
    !!handler_zi
    __scatterload_zeroinit
        0x0000c190:    2300        .#      MOVS     r3,#0
        0x0000c192:    2400        .$      MOVS     r4,#0
        0x0000c194:    2500        .%      MOVS     r5,#0
        0x0000c196:    2600        .&      MOVS     r6,#0
        0x0000c198:    3a10        .:      SUBS     r2,r2,#0x10
        0x0000c19a:    bf28        (.      IT       CS
        0x0000c19c:    c178        x.      STMCS    r1!,{r3-r6}
        0x0000c19e:    d8fb        ..      BHI      0xc198 ; __scatterload_zeroinit + 8
        0x0000c1a0:    0752        R.      LSLS     r2,r2,#29
        0x0000c1a2:    bf28        (.      IT       CS
        0x0000c1a4:    c130        0.      STMCS    r1!,{r4,r5}
        0x0000c1a6:    bf48        H.      IT       MI
        0x0000c1a8:    600b        .`      STRMI    r3,[r1,#0]
        0x0000c1aa:    4770        pG      BX       lr
    .ARM.Collect$$libinit$$00000000
    __rt_lib_init
        0x0000c1ac:    b51f        ..      PUSH     {r0-r4,lr}
    .ARM.Collect$$libinit$$00000001
    __rt_lib_init_fp_1
        0x0000c1ae:    f002f890    ....    BL       _fp_init ; 0xe2d2
    .ARM.Collect$$libinit$$00000004
    .ARM.Collect$$libinit$$0000000A
    .ARM.Collect$$libinit$$0000000C
    .ARM.Collect$$libinit$$0000000E
    .ARM.Collect$$libinit$$00000011
    .ARM.Collect$$libinit$$00000013
    .ARM.Collect$$libinit$$00000015
    .ARM.Collect$$libinit$$00000017
    .ARM.Collect$$libinit$$00000019
    .ARM.Collect$$libinit$$0000001B
    .ARM.Collect$$libinit$$0000001D
    .ARM.Collect$$libinit$$0000001F
    .ARM.Collect$$libinit$$00000021
    .ARM.Collect$$libinit$$00000023
    .ARM.Collect$$libinit$$00000025
    .ARM.Collect$$libinit$$0000002C
    .ARM.Collect$$libinit$$0000002E
    .ARM.Collect$$libinit$$00000030
    .ARM.Collect$$libinit$$00000032
    .ARM.Collect$$libinit$$00000033
    __rt_lib_init_alloca_1
    __rt_lib_init_argv_1
    __rt_lib_init_atexit_1
    __rt_lib_init_clock_1
    __rt_lib_init_cpp_1
    __rt_lib_init_exceptions_1
    __rt_lib_init_fp_trap_1
    __rt_lib_init_getenv_1
    __rt_lib_init_heap_1
    __rt_lib_init_lc_collate_1
    __rt_lib_init_lc_ctype_1
    __rt_lib_init_lc_monetary_1
    __rt_lib_init_lc_numeric_1
    __rt_lib_init_lc_time_1
    __rt_lib_init_preinit_1
    __rt_lib_init_rand_1
    __rt_lib_init_return
    __rt_lib_init_signal_1
    __rt_lib_init_stdio_1
    __rt_lib_init_user_alloc_1
        0x0000c1b2:    bd1f        ..      POP      {r0-r4,pc}
    .ARM.Collect$$libshutdown$$00000000
    __rt_lib_shutdown
        0x0000c1b4:    b510        ..      PUSH     {r4,lr}
    .ARM.Collect$$libshutdown$$00000002
    .ARM.Collect$$libshutdown$$00000004
    .ARM.Collect$$libshutdown$$00000007
    .ARM.Collect$$libshutdown$$0000000A
    .ARM.Collect$$libshutdown$$0000000C
    .ARM.Collect$$libshutdown$$0000000F
    .ARM.Collect$$libshutdown$$00000010
    __rt_lib_shutdown_cpp_1
    __rt_lib_shutdown_fp_trap_1
    __rt_lib_shutdown_heap_1
    __rt_lib_shutdown_return
    __rt_lib_shutdown_signal_1
    __rt_lib_shutdown_stdio_1
    __rt_lib_shutdown_user_alloc_1
        0x0000c1b6:    bd10        ..      POP      {r4,pc}
    .ARM.Collect$$rtentry$$00000000
    .ARM.Collect$$rtentry$$00000002
    .ARM.Collect$$rtentry$$00000004
    __rt_entry
    __rt_entry_presh_1
    __rt_entry_sh
        0x0000c1b8:    f000f83b    ..;.    BL       __user_setup_stackheap ; 0xc232
        0x0000c1bc:    4611        .F      MOV      r1,r2
    .ARM.Collect$$rtentry$$00000009
    .ARM.Collect$$rtentry$$0000000A
    __rt_entry_li
    __rt_entry_postsh_1
        0x0000c1be:    f7fffff5    ....    BL       __rt_lib_init ; 0xc1ac
    .ARM.Collect$$rtentry$$0000000C
    .ARM.Collect$$rtentry$$0000000D
    __rt_entry_main
    __rt_entry_postli_1
        0x0000c1c2:    f001fd71    ..q.    BL       main ; 0xdca8
        0x0000c1c6:    f000f859    ..Y.    BL       exit ; 0xc27c
    .ARM.Collect$$rtexit$$00000000
    __rt_exit
        0x0000c1ca:    b403        ..      PUSH     {r0,r1}
    .ARM.Collect$$rtexit$$00000002
    .ARM.Collect$$rtexit$$00000003
    __rt_exit_ls
    __rt_exit_prels_1
        0x0000c1cc:    f7fffff2    ....    BL       __rt_lib_shutdown ; 0xc1b4
    .ARM.Collect$$rtexit$$00000004
    __rt_exit_exit
        0x0000c1d0:    bc03        ..      POP      {r0,r1}
        0x0000c1d2:    f000f861    ..a.    BL       _sys_exit ; 0xc298
        0x0000c1d6:    0000        ..      MOVS     r0,r0
    .emb_text
    $v0
    HardFault_Handler
        0x0000c1d8:    b501        ..      PUSH     {r0,lr}
        0x0000c1da:    f01e0f04    ....    TST      lr,#4
        0x0000c1de:    bf0a        ..      ITET     EQ
        0x0000c1e0:    f3ef8008    ....    MRSEQ    r0,MSP
        0x0000c1e4:    f3ef8009    ....    MRSNE    r0,PSP
        0x0000c1e8:    f1100008    ....    ADDSEQ   r0,r0,#8
        0x0000c1ec:    f000ff20    .. .    BL       am_util_faultisr_collect_data ; 0xd030
        0x0000c1f0:    bd01        ..      POP      {r0,pc}
    getStackedReg
        0x0000c1f2:    0080        ..      LSLS     r0,r0,#2
        0x0000c1f4:    1840        @.      ADDS     r0,r0,r1
        0x0000c1f6:    6800        .h      LDR      r0,[r0,#0]
        0x0000c1f8:    4770        pG      BX       lr
        0x0000c1fa:    0000        ..      MOVS     r0,r0
    .emb_text
    $v0
    am_hal_interrupt_master_enable
        0x0000c1fc:    f3ef8010    ....    MRS      r0,PRIMASK
        0x0000c200:    b662        b.      CPSIE    i
        0x0000c202:    4770        pG      BX       lr
    am_hal_interrupt_master_disable
        0x0000c204:    f3ef8010    ....    MRS      r0,PRIMASK
        0x0000c208:    b672        r.      CPSID    i
        0x0000c20a:    4770        pG      BX       lr
    am_hal_interrupt_master_set
        0x0000c20c:    f3808810    ....    MSR      PRIMASK,r0
        0x0000c210:    4770        pG      BX       lr
        0x0000c212:    0000        ..      MOVS     r0,r0
    .text
    $v0
    __user_initial_stackheap
        0x0000c214:    4802        .H      LDR      r0,[pc,#8] ; [0xc220] = 0x10009708
        0x0000c216:    4903        .I      LDR      r1,[pc,#12] ; [0xc224] = 0x10001098
        0x0000c218:    4a01        .J      LDR      r2,[pc,#4] ; [0xc220] = 0x10009708
        0x0000c21a:    4b03        .K      LDR      r3,[pc,#12] ; [0xc228] = 0x10000098
        0x0000c21c:    4770        pG      BX       lr
    $d
        0x0000c21e:    0000        ..      DCW    0
        0x0000c220:    10009708    ....    DCD    268474120
        0x0000c224:    10001098    ....    DCD    268439704
        0x0000c228:    10000098    ....    DCD    268435608
    $t
    .text
    __use_two_region_memory
        0x0000c22c:    4770        pG      BX       lr
    __rt_heap_escrow$2region
        0x0000c22e:    4770        pG      BX       lr
    __rt_heap_expand$2region
        0x0000c230:    4770        pG      BX       lr
    .text
    __user_setup_stackheap
        0x0000c232:    4675        uF      MOV      r5,lr
        0x0000c234:    f000f82c    ..,.    BL       __user_libspace ; 0xc290
        0x0000c238:    46ae        .F      MOV      lr,r5
        0x0000c23a:    0005        ..      MOVS     r5,r0
        0x0000c23c:    4669        iF      MOV      r1,sp
        0x0000c23e:    4653        SF      MOV      r3,r10
        0x0000c240:    f0200007     ...    BIC      r0,r0,#7
        0x0000c244:    4685        .F      MOV      sp,r0
        0x0000c246:    b018        ..      ADD      sp,sp,#0x60
        0x0000c248:    b520         .      PUSH     {r5,lr}
        0x0000c24a:    f7ffffe3    ....    BL       __user_initial_stackheap ; 0xc214
        0x0000c24e:    e8bd4020    .. @    POP      {r5,lr}
        0x0000c252:    f04f0600    O...    MOV      r6,#0
        0x0000c256:    f04f0700    O...    MOV      r7,#0
        0x0000c25a:    f04f0800    O...    MOV      r8,#0
        0x0000c25e:    f04f0b00    O...    MOV      r11,#0
        0x0000c262:    f0210107    !...    BIC      r1,r1,#7
        0x0000c266:    46ac        .F      MOV      r12,r5
        0x0000c268:    e8ac09c0    ....    STM      r12!,{r6-r8,r11}
        0x0000c26c:    e8ac09c0    ....    STM      r12!,{r6-r8,r11}
        0x0000c270:    e8ac09c0    ....    STM      r12!,{r6-r8,r11}
        0x0000c274:    e8ac09c0    ....    STM      r12!,{r6-r8,r11}
        0x0000c278:    468d        .F      MOV      sp,r1
        0x0000c27a:    4770        pG      BX       lr
    .text
    exit
        0x0000c27c:    b510        ..      PUSH     {r4,lr}
        0x0000c27e:    4604        .F      MOV      r4,r0
        0x0000c280:    f3af8000    ....    NOP.W    
        0x0000c284:    4620         F      MOV      r0,r4
        0x0000c286:    e8bd4010    ...@    POP      {r4,lr}
        0x0000c28a:    f7ffbf9e    ....    B.W      __rt_exit ; 0xc1ca
        0x0000c28e:    0000        ..      MOVS     r0,r0
    .text
    __user_libspace
    __user_perproc_libspace
    __user_perthread_libspace
        0x0000c290:    4800        .H      LDR      r0,[pc,#0] ; [0xc294] = 0x100096a4
        0x0000c292:    4770        pG      BX       lr
    $d
        0x0000c294:    100096a4    ....    DCD    268474020
    $t
    .text
    _sys_exit
        0x0000c298:    4901        .I      LDR      r1,[pc,#4] ; [0xc2a0] = 0x20026
        0x0000c29a:    2018        .       MOVS     r0,#0x18
        0x0000c29c:    beab        ..      BKPT     #0xab
        0x0000c29e:    e7fe        ..      B        0xc29e ; _sys_exit + 6
    $d
        0x0000c2a0:    00020026    &...    DCD    131110
    $t
    .text
    __I$use$semihosting
    __use_no_semihosting_swi
        0x0000c2a4:    4770        pG      BX       lr
    .text
    __semihosting_library_function
        0x0000c2a6:    0000        ..      MOVS     r0,r0
    i.am_bsp_itm_printf_enable
    am_bsp_itm_printf_enable
        0x0000c2a8:    b500        ..      PUSH     {lr}
        0x0000c2aa:    490a        .I      LDR      r1,[pc,#40] ; [0xc2d4] = 0x10000038
        0x0000c2ac:    b085        ..      SUB      sp,sp,#0x14
        0x0000c2ae:    2001        .       MOVS     r0,#1
        0x0000c2b0:    6008        .`      STR      r0,[r1,#0]
        0x0000c2b2:    f000fb1f    ....    BL       am_hal_itm_enable ; 0xc8f4
        0x0000c2b6:    4808        .H      LDR      r0,[pc,#32] ; [0xc2d8] = 0xf4240
        0x0000c2b8:    9000        ..      STR      r0,[sp,#0]
        0x0000c2ba:    4668        hF      MOV      r0,sp
        0x0000c2bc:    f000fe48    ..H.    BL       am_hal_tpiu_enable ; 0xcf50
        0x0000c2c0:    4806        .H      LDR      r0,[pc,#24] ; [0xc2dc] = 0xe4d8
        0x0000c2c2:    6801        .h      LDR      r1,[r0,#0]
        0x0000c2c4:    2029        )       MOVS     r0,#0x29
        0x0000c2c6:    f000f995    ....    BL       am_hal_gpio_pinconfig ; 0xc5f4
        0x0000c2ca:    4805        .H      LDR      r0,[pc,#20] ; [0xc2e0] = 0xc93d
        0x0000c2cc:    f001f926    ..&.    BL       am_util_stdio_printf_init ; 0xd51c
        0x0000c2d0:    b005        ..      ADD      sp,sp,#0x14
        0x0000c2d2:    bd00        ..      POP      {pc}
    $d
        0x0000c2d4:    10000038    8...    DCD    268435512
        0x0000c2d8:    000f4240    @B..    DCD    1000000
        0x0000c2dc:    0000e4d8    ....    DCD    58584
        0x0000c2e0:    0000c93d    =...    DCD    51517
    $t
    i.am_devices_led_array_init
    am_devices_led_array_init
        0x0000c2e4:    2800        .(      CMP      r0,#0
        0x0000c2e6:    bf08        ..      IT       EQ
        0x0000c2e8:    4770        pG      BXEQ     lr
        0x0000c2ea:    291f        .)      CMP      r1,#0x1f
        0x0000c2ec:    bf88        ..      IT       HI
        0x0000c2ee:    4770        pG      BXHI     lr
        0x0000c2f0:    e92d47f0    -..G    PUSH     {r4-r10,lr}
        0x0000c2f4:    000e        ..      MOVS     r6,r1
        0x0000c2f6:    4607        .F      MOV      r7,r0
        0x0000c2f8:    f04f0500    O...    MOV      r5,#0
        0x0000c2fc:    bf1a        ..      ITTE     NE
        0x0000c2fe:    f8df8064    ..d.    LDRNE    r8,[pc,#100] ; [0xc364] = 0xe454
        0x0000c302:    f8df9064    ..d.    LDRNE    r9,[pc,#100] ; [0xc368] = 0xe450
        0x0000c306:    e8bd87f0    ....    POPEQ    {r4-r10,pc}
        0x0000c30a:    bf00        ..      NOP      
        0x0000c30c:    eb1704c5    ....    ADDS     r4,r7,r5,LSL #3
        0x0000c310:    d023        #.      BEQ      0xc35a ; am_devices_led_array_init + 118
        0x0000c312:    6820         h      LDR      r0,[r4,#0]
        0x0000c314:    2832        2(      CMP      r0,#0x32
        0x0000c316:    d220         .      BCS      0xc35a ; am_devices_led_array_init + 118
        0x0000c318:    7921        !y      LDRB     r1,[r4,#4]
        0x0000c31a:    f0110f02    ....    TST      r1,#2
        0x0000c31e:    d00e        ..      BEQ      0xc33e ; am_devices_led_array_init + 90
        0x0000c320:    f8d81000    ....    LDR      r1,[r8,#0]
        0x0000c324:    f000f966    ..f.    BL       am_hal_gpio_pinconfig ; 0xc5f4
        0x0000c328:    2103        .!      MOVS     r1,#3
        0x0000c32a:    6820         h      LDR      r0,[r4,#0]
        0x0000c32c:    f000faa2    ....    BL       am_hal_gpio_state_write ; 0xc874
        0x0000c330:    7920         y      LDRB     r0,[r4,#4]
        0x0000c332:    f0000101    ....    AND      r1,r0,#1
        0x0000c336:    6820         h      LDR      r0,[r4,#0]
        0x0000c338:    f000fa9c    ....    BL       am_hal_gpio_state_write ; 0xc874
        0x0000c33c:    e00d        ..      B        0xc35a ; am_devices_led_array_init + 118
        0x0000c33e:    f8d91000    ....    LDR      r1,[r9,#0]
        0x0000c342:    f000f957    ..W.    BL       am_hal_gpio_pinconfig ; 0xc5f4
        0x0000c346:    2103        .!      MOVS     r1,#3
        0x0000c348:    6820         h      LDR      r0,[r4,#0]
        0x0000c34a:    f000fa93    ....    BL       am_hal_gpio_state_write ; 0xc874
        0x0000c34e:    7920         y      LDRB     r0,[r4,#4]
        0x0000c350:    f0000101    ....    AND      r1,r0,#1
        0x0000c354:    6820         h      LDR      r0,[r4,#0]
        0x0000c356:    f000fa8d    ....    BL       am_hal_gpio_state_write ; 0xc874
        0x0000c35a:    1c6d        m.      ADDS     r5,r5,#1
        0x0000c35c:    42b5        .B      CMP      r5,r6
        0x0000c35e:    d3d5        ..      BCC      0xc30c ; am_devices_led_array_init + 40
        0x0000c360:    e8bd87f0    ....    POP      {r4-r10,pc}
    $d
        0x0000c364:    0000e454    T...    DCD    58452
        0x0000c368:    0000e450    P...    DCD    58448
    $t
    i.am_devices_led_array_out
    am_devices_led_array_out
        0x0000c36c:    e92d41f0    -..A    PUSH     {r4-r8,lr}
        0x0000c370:    4690        .F      MOV      r8,r2
        0x0000c372:    000e        ..      MOVS     r6,r1
        0x0000c374:    4605        .F      MOV      r5,r0
        0x0000c376:    f04f0400    O...    MOV      r4,#0
        0x0000c37a:    bf14        ..      ITE      NE
        0x0000c37c:    2701        .'      MOVNE    r7,#1
        0x0000c37e:    e8bd81f0    ....    POPEQ    {r4-r8,pc}
        0x0000c382:    bf00        ..      NOP      
        0x0000c384:    fa07f004    ....    LSL      r0,r7,r4
        0x0000c388:    ea100f08    ....    TST      r0,r8
        0x0000c38c:    d013        ..      BEQ      0xc3b6 ; am_devices_led_array_out + 74
        0x0000c38e:    2d00        .-      CMP      r5,#0
        0x0000c390:    bf18        ..      IT       NE
        0x0000c392:    2c1f        .,      CMPNE    r4,#0x1f
        0x0000c394:    bf3c        <.      ITT      CC
        0x0000c396:    f8550034    U.4.    LDRCC    r0,[r5,r4,LSL #3]
        0x0000c39a:    2832        2(      CMPCC    r0,#0x32
        0x0000c39c:    d21d        ..      BCS      0xc3da ; am_devices_led_array_out + 110
        0x0000c39e:    eb0501c4    ....    ADD      r1,r5,r4,LSL #3
        0x0000c3a2:    6849        Ih      LDR      r1,[r1,#4]
        0x0000c3a4:    f0110f02    ....    TST      r1,#2
        0x0000c3a8:    bf14        ..      ITE      NE
        0x0000c3aa:    f0010101    ....    ANDNE    r1,r1,#1
        0x0000c3ae:    2104        .!      MOVEQ    r1,#4
        0x0000c3b0:    f000fa60    ..`.    BL       am_hal_gpio_state_write ; 0xc874
        0x0000c3b4:    e011        ..      B        0xc3da ; am_devices_led_array_out + 110
        0x0000c3b6:    2d00        .-      CMP      r5,#0
        0x0000c3b8:    bf18        ..      IT       NE
        0x0000c3ba:    2c1f        .,      CMPNE    r4,#0x1f
        0x0000c3bc:    bf3c        <.      ITT      CC
        0x0000c3be:    f8550034    U.4.    LDRCC    r0,[r5,r4,LSL #3]
        0x0000c3c2:    2832        2(      CMPCC    r0,#0x32
        0x0000c3c4:    d209        ..      BCS      0xc3da ; am_devices_led_array_out + 110
        0x0000c3c6:    eb0501c4    ....    ADD      r1,r5,r4,LSL #3
        0x0000c3ca:    6849        Ih      LDR      r1,[r1,#4]
        0x0000c3cc:    f0110f02    ....    TST      r1,#2
        0x0000c3d0:    bf14        ..      ITE      NE
        0x0000c3d2:    ea270101    '...    BICNE    r1,r7,r1
        0x0000c3d6:    2103        .!      MOVEQ    r1,#3
        0x0000c3d8:    e7ea        ..      B        0xc3b0 ; am_devices_led_array_out + 68
        0x0000c3da:    1c64        d.      ADDS     r4,r4,#1
        0x0000c3dc:    42b4        .B      CMP      r4,r6
        0x0000c3de:    d3d1        ..      BCC      0xc384 ; am_devices_led_array_out + 24
        0x0000c3e0:    e8bd81f0    ....    POP      {r4-r8,pc}
    i.am_devices_led_off
    am_devices_led_off
        0x0000c3e4:    2800        .(      CMP      r0,#0
        0x0000c3e6:    bf18        ..      IT       NE
        0x0000c3e8:    291f        .)      CMPNE    r1,#0x1f
        0x0000c3ea:    bf3a        :.      ITTE     CC
        0x0000c3ec:    f8502031    P.1     LDRCC    r2,[r0,r1,LSL #3]
        0x0000c3f0:    2a32        2*      CMPCC    r2,#0x32
        0x0000c3f2:    4770        pG      BXCS     lr
        0x0000c3f4:    eb0000c1    ....    ADD      r0,r0,r1,LSL #3
        0x0000c3f8:    6840        @h      LDR      r0,[r0,#4]
        0x0000c3fa:    f0100f02    ....    TST      r0,#2
        0x0000c3fe:    d004        ..      BEQ      0xc40a ; am_devices_led_off + 38
        0x0000c400:    2101        .!      MOVS     r1,#1
        0x0000c402:    4381        .C      BICS     r1,r1,r0
        0x0000c404:    4610        .F      MOV      r0,r2
        0x0000c406:    f000ba35    ..5.    B.W      am_hal_gpio_state_write ; 0xc874
        0x0000c40a:    2103        .!      MOVS     r1,#3
        0x0000c40c:    4610        .F      MOV      r0,r2
        0x0000c40e:    f000ba31    ..1.    B.W      am_hal_gpio_state_write ; 0xc874
    i.am_devices_led_on
    am_devices_led_on
        0x0000c412:    2800        .(      CMP      r0,#0
        0x0000c414:    bf18        ..      IT       NE
        0x0000c416:    291f        .)      CMPNE    r1,#0x1f
        0x0000c418:    bf3a        :.      ITTE     CC
        0x0000c41a:    f8502031    P.1     LDRCC    r2,[r0,r1,LSL #3]
        0x0000c41e:    2a32        2*      CMPCC    r2,#0x32
        0x0000c420:    4770        pG      BXCS     lr
        0x0000c422:    eb0000c1    ....    ADD      r0,r0,r1,LSL #3
        0x0000c426:    6840        @h      LDR      r0,[r0,#4]
        0x0000c428:    f0100f02    ....    TST      r0,#2
        0x0000c42c:    d004        ..      BEQ      0xc438 ; am_devices_led_on + 38
        0x0000c42e:    f0000101    ....    AND      r1,r0,#1
        0x0000c432:    4610        .F      MOV      r0,r2
        0x0000c434:    f000ba1e    ....    B.W      am_hal_gpio_state_write ; 0xc874
        0x0000c438:    2104        .!      MOVS     r1,#4
        0x0000c43a:    4610        .F      MOV      r0,r2
        0x0000c43c:    f000ba1a    ....    B.W      am_hal_gpio_state_write ; 0xc874
    i.am_hal_cachectrl_config
    am_hal_cachectrl_config
        0x0000c440:    b538        8.      PUSH     {r3-r5,lr}
        0x0000c442:    4604        .F      MOV      r4,r0
        0x0000c444:    f7fffede    ....    BL       am_hal_interrupt_master_disable ; 0xc204
        0x0000c448:    4d0f        .M      LDR      r5,[pc,#60] ; [0xc488] = 0x40018000
        0x0000c44a:    9000        ..      STR      r0,[sp,#0]
        0x0000c44c:    6828        (h      LDR      r0,[r5,#0]
        0x0000c44e:    f4207040     .@p    BIC      r0,r0,#0x300
        0x0000c452:    6028        (`      STR      r0,[r5,#0]
        0x0000c454:    9800        ..      LDR      r0,[sp,#0]
        0x0000c456:    f7fffed9    ....    BL       am_hal_interrupt_master_set ; 0xc20c
        0x0000c45a:    78a0        .x      LDRB     r0,[r4,#2]
        0x0000c45c:    2102        .!      MOVS     r1,#2
        0x0000c45e:    ea010040    ..@.    AND      r0,r1,r0,LSL #1
        0x0000c462:    7821        !x      LDRB     r1,[r4,#0]
        0x0000c464:    22f0        ."      MOVS     r2,#0xf0
        0x0000c466:    ea021101    ....    AND      r1,r2,r1,LSL #4
        0x0000c46a:    4308        .C      ORRS     r0,r0,r1
        0x0000c46c:    7861        ax      LDRB     r1,[r4,#1]
        0x0000c46e:    f44f7240    O.@r    MOV      r2,#0x300
        0x0000c472:    ea022101    ...!    AND      r1,r2,r1,LSL #8
        0x0000c476:    4308        .C      ORRS     r0,r0,r1
        0x0000c478:    f4406080    @..`    ORR      r0,r0,#0x400
        0x0000c47c:    f4401080    @...    ORR      r0,r0,#0x100000
        0x0000c480:    6028        (`      STR      r0,[r5,#0]
        0x0000c482:    2000        .       MOVS     r0,#0
        0x0000c484:    bd38        8.      POP      {r3-r5,pc}
    $d
        0x0000c486:    0000        ..      DCW    0
        0x0000c488:    40018000    ...@    DCD    1073840128
    $t
    i.am_hal_cachectrl_enable
    am_hal_cachectrl_enable
        0x0000c48c:    4803        .H      LDR      r0,[pc,#12] ; [0xc49c] = 0x40018000
        0x0000c48e:    6801        .h      LDR      r1,[r0,#0]
        0x0000c490:    f0410101    A...    ORR      r1,r1,#1
        0x0000c494:    6001        .`      STR      r1,[r0,#0]
        0x0000c496:    2000        .       MOVS     r0,#0
        0x0000c498:    4770        pG      BX       lr
    $d
        0x0000c49a:    0000        ..      DCW    0
        0x0000c49c:    40018000    ...@    DCD    1073840128
    $t
    i.am_hal_clkgen_control
    am_hal_clkgen_control
        0x0000c4a0:    b510        ..      PUSH     {r4,lr}
        0x0000c4a2:    460c        .F      MOV      r4,r1
        0x0000c4a4:    4939        9I      LDR      r1,[pc,#228] ; [0xc58c] = 0x10000094
        0x0000c4a6:    680a        .h      LDR      r2,[r1,#0]
        0x0000c4a8:    b912        ..      CBNZ     r2,0xc4b0 ; am_hal_clkgen_control + 16
        0x0000c4aa:    4a39        9J      LDR      r2,[pc,#228] ; [0xc590] = 0x4ffff000
        0x0000c4ac:    6812        .h      LDR      r2,[r2,#0]
        0x0000c4ae:    600a        .`      STR      r2,[r1,#0]
        0x0000c4b0:    280a        .(      CMP      r0,#0xa
        0x0000c4b2:    d269        i.      BCS      0xc588 ; am_hal_clkgen_control + 232
        0x0000c4b4:    e8dff000    ....    TBB      [pc,r0]
    $d
        0x0000c4b8:    27151b05    ...'    DCD    655694597
        0x0000c4bc:    3a400c21    !.@:    DCD    977275937
        0x0000c4c0:    6047        G`      DCW    24647
    $t
        0x0000c4c2:    f04f2040    O.@     MOV      r0,#0x40004000
        0x0000c4c6:    2147        G!      MOVS     r1,#0x47
        0x0000c4c8:    6141        Aa      STR      r1,[r0,#0x14]
        0x0000c4ca:    2100        .!      MOVS     r1,#0
        0x0000c4cc:    6181        .a      STR      r1,[r0,#0x18]
        0x0000c4ce:    e006        ..      B        0xc4de ; am_hal_clkgen_control + 62
        0x0000c4d0:    f04f2040    O.@     MOV      r0,#0x40004000
        0x0000c4d4:    2147        G!      MOVS     r1,#0x47
        0x0000c4d6:    6141        Aa      STR      r1,[r0,#0x14]
        0x0000c4d8:    2101        .!      MOVS     r1,#1
        0x0000c4da:    6181        .a      STR      r1,[r0,#0x18]
        0x0000c4dc:    2100        .!      MOVS     r1,#0
        0x0000c4de:    6141        Aa      STR      r1,[r0,#0x14]
        0x0000c4e0:    e050        P.      B        0xc584 ; am_hal_clkgen_control + 228
        0x0000c4e2:    f04f2040    O.@     MOV      r0,#0x40004000
        0x0000c4e6:    68c1        .h      LDR      r1,[r0,#0xc]
        0x0000c4e8:    f0210102    !...    BIC      r1,r1,#2
        0x0000c4ec:    e029        ).      B        0xc542 ; am_hal_clkgen_control + 162
        0x0000c4ee:    f04f2040    O.@     MOV      r0,#0x40004000
        0x0000c4f2:    68c1        .h      LDR      r1,[r0,#0xc]
        0x0000c4f4:    f0210101    !...    BIC      r1,r1,#1
        0x0000c4f8:    e023        #.      B        0xc542 ; am_hal_clkgen_control + 162
        0x0000c4fa:    f04f2040    O.@     MOV      r0,#0x40004000
        0x0000c4fe:    68c1        .h      LDR      r1,[r0,#0xc]
        0x0000c500:    f0410102    A...    ORR      r1,r1,#2
        0x0000c504:    e01d        ..      B        0xc542 ; am_hal_clkgen_control + 162
        0x0000c506:    4823        #H      LDR      r0,[pc,#140] ; [0xc594] = 0x40020000
        0x0000c508:    68c1        .h      LDR      r1,[r0,#0xc]
        0x0000c50a:    b2c9        ..      UXTB     r1,r1
        0x0000c50c:    2921        !)      CMP      r1,#0x21
        0x0000c50e:    d107        ..      BNE      0xc520 ; am_hal_clkgen_control + 128
        0x0000c510:    f8d01120    .. .    LDR      r1,[r0,#0x120]
        0x0000c514:    f4217140    !.@q    BIC      r1,r1,#0x300
        0x0000c518:    f5017180    ...q    ADD      r1,r1,#0x100
        0x0000c51c:    f8c01120    .. .    STR      r1,[r0,#0x120]
        0x0000c520:    f04f2040    O.@     MOV      r0,#0x40004000
        0x0000c524:    68c1        .h      LDR      r1,[r0,#0xc]
        0x0000c526:    f0410101    A...    ORR      r1,r1,#1
        0x0000c52a:    e00a        ..      B        0xc542 ; am_hal_clkgen_control + 162
        0x0000c52c:    f04f2040    O.@     MOV      r0,#0x40004000
        0x0000c530:    68c1        .h      LDR      r1,[r0,#0xc]
        0x0000c532:    f0410180    A...    ORR      r1,r1,#0x80
        0x0000c536:    e004        ..      B        0xc542 ; am_hal_clkgen_control + 162
        0x0000c538:    f04f2040    O.@     MOV      r0,#0x40004000
        0x0000c53c:    68c1        .h      LDR      r1,[r0,#0xc]
        0x0000c53e:    f0210180    !...    BIC      r1,r1,#0x80
        0x0000c542:    60c1        .`      STR      r1,[r0,#0xc]
        0x0000c544:    e01e        ..      B        0xc584 ; am_hal_clkgen_control + 228
        0x0000c546:    4813        .H      LDR      r0,[pc,#76] ; [0xc594] = 0x40020000
        0x0000c548:    68c1        .h      LDR      r1,[r0,#0xc]
        0x0000c54a:    b2c9        ..      UXTB     r1,r1
        0x0000c54c:    2921        !)      CMP      r1,#0x21
        0x0000c54e:    d109        ..      BNE      0xc564 ; am_hal_clkgen_control + 196
        0x0000c550:    f8d01120    .. .    LDR      r1,[r0,#0x120]
        0x0000c554:    f4417140    A.@q    ORR      r1,r1,#0x300
        0x0000c558:    f8c01120    .. .    STR      r1,[r0,#0x120]
        0x0000c55c:    f44f507a    O.zP    MOV      r0,#0x3e80
        0x0000c560:    f000f836    ..6.    BL       am_hal_flash_delay ; 0xc5d0
        0x0000c564:    2c00        .,      CMP      r4,#0
        0x0000c566:    bf0c        ..      ITE      EQ
        0x0000c568:    480b        .H      LDREQ    r0,[pc,#44] ; [0xc598] = 0x25b801
        0x0000c56a:    6820         h      LDRNE    r0,[r4,#0]
        0x0000c56c:    f0400001    @...    ORR      r0,r0,#1
        0x0000c570:    f04f2140    O.@!    MOV      r1,#0x40004000
        0x0000c574:    6208        .b      STR      r0,[r1,#0x20]
        0x0000c576:    e005        ..      B        0xc584 ; am_hal_clkgen_control + 228
        0x0000c578:    f04f2040    O.@     MOV      r0,#0x40004000
        0x0000c57c:    6a01        .j      LDR      r1,[r0,#0x20]
        0x0000c57e:    f0210101    !...    BIC      r1,r1,#1
        0x0000c582:    6201        .b      STR      r1,[r0,#0x20]
        0x0000c584:    2000        .       MOVS     r0,#0
        0x0000c586:    bd10        ..      POP      {r4,pc}
        0x0000c588:    2006        .       MOVS     r0,#6
        0x0000c58a:    bd10        ..      POP      {r4,pc}
    $d
        0x0000c58c:    10000094    ....    DCD    268435604
        0x0000c590:    4ffff000    ...O    DCD    1342173184
        0x0000c594:    40020000    ...@    DCD    1073872896
        0x0000c598:    0025b801    ..%.    DCD    2471937
    $t
    i.am_hal_clkgen_status_get
    am_hal_clkgen_status_get
        0x0000c59c:    2800        .(      CMP      r0,#0
        0x0000c59e:    bf04        ..      ITT      EQ
        0x0000c5a0:    2006        .       MOVEQ    r0,#6
        0x0000c5a2:    4770        pG      BXEQ     lr
        0x0000c5a4:    f04f2140    O.@!    MOV      r1,#0x40004000
        0x0000c5a8:    698a        .i      LDR      r2,[r1,#0x18]
        0x0000c5aa:    f0120f01    ....    TST      r2,#1
        0x0000c5ae:    bf14        ..      ITE      NE
        0x0000c5b0:    4a05        .J      LDRNE    r2,[pc,#20] ; [0xc5c8] = 0x16e3600
        0x0000c5b2:    4a06        .J      LDREQ    r2,[pc,#24] ; [0xc5cc] = 0x2dc6c00
        0x0000c5b4:    6002        .`      STR      r2,[r0,#0]
        0x0000c5b6:    69c9        .i      LDR      r1,[r1,#0x1c]
        0x0000c5b8:    f0010201    ....    AND      r2,r1,#1
        0x0000c5bc:    f3c10140    ..@.    UBFX     r1,r1,#1,#1
        0x0000c5c0:    6042        B`      STR      r2,[r0,#4]
        0x0000c5c2:    7201        .r      STRB     r1,[r0,#8]
        0x0000c5c4:    2000        .       MOVS     r0,#0
        0x0000c5c6:    4770        pG      BX       lr
    $d
        0x0000c5c8:    016e3600    .6n.    DCD    24000000
        0x0000c5cc:    02dc6c00    .l..    DCD    48000000
    $t
    i.am_hal_flash_delay
    am_hal_flash_delay
        0x0000c5d0:    f04f2140    O.@!    MOV      r1,#0x40004000
        0x0000c5d4:    6b49        Ik      LDR      r1,[r1,#0x34]
        0x0000c5d6:    f0110f04    ....    TST      r1,#4
        0x0000c5da:    bf1a        ..      ITTE     NE
        0x0000c5dc:    0040        @.      LSLNE    r0,r0,#1
        0x0000c5de:    210e        .!      MOVNE    r1,#0xe
        0x0000c5e0:    210b        .!      MOVEQ    r1,#0xb
        0x0000c5e2:    4288        .B      CMP      r0,r1
        0x0000c5e4:    bf98        ..      IT       LS
        0x0000c5e6:    4770        pG      BXLS     lr
        0x0000c5e8:    1a40        @.      SUBS     r0,r0,r1
        0x0000c5ea:    4901        .I      LDR      r1,[pc,#4] ; [0xc5f0] = 0x800009d
        0x0000c5ec:    4708        .G      BX       r1
    $d
        0x0000c5ee:    0000        ..      DCW    0
        0x0000c5f0:    0800009d    ....    DCD    134217885
    $t
    i.am_hal_gpio_pinconfig
    am_hal_gpio_pinconfig
        0x0000c5f4:    e92d4ff0    -..O    PUSH     {r4-r11,lr}
        0x0000c5f8:    2500        .%      MOVS     r5,#0
        0x0000c5fa:    b08b        ..      SUB      sp,sp,#0x2c
        0x0000c5fc:    4604        .F      MOV      r4,r0
        0x0000c5fe:    2832        2(      CMP      r0,#0x32
        0x0000c600:    bf22        ".      ITTT     CS
        0x0000c602:    2006        .       MOVCS    r0,#6
        0x0000c604:    b00b        ..      ADDCS    sp,sp,#0x2c
        0x0000c606:    e8bd8ff0    ....    POPCS    {r4-r11,pc}
        0x0000c60a:    2200        ."      MOVS     r2,#0
        0x0000c60c:    f0010307    ....    AND      r3,r1,#7
        0x0000c610:    4f8b        .O      LDR      r7,[pc,#556] ; [0xc840] = 0xe322
        0x0000c612:    f3c10cc1    ....    UBFX     r12,r1,#3,#2
        0x0000c616:    ea4200c3    B...    ORR      r0,r2,r3,LSL #3
        0x0000c61a:    f0110fe0    ....    TST      r1,#0xe0
        0x0000c61e:    d021        !.      BEQ      0xc664 ; am_hal_gpio_pinconfig + 112
        0x0000c620:    f3c11642    ..B.    UBFX     r6,r1,#5,#3
        0x0000c624:    f1a60902    ....    SUB      r9,r6,#2
        0x0000c628:    f8df8218    ....    LDR      r8,[pc,#536] ; [0xc844] = 0x8000100
        0x0000c62c:    f0400001    @...    ORR      r0,r0,#1
        0x0000c630:    f1b90f03    ....    CMP      r9,#3
        0x0000c634:    d809        ..      BHI      0xc64a ; am_hal_gpio_pinconfig + 86
        0x0000c636:    f06f097f    o...    MVN      r9,#0x7f
        0x0000c63a:    eb091686    ....    ADD      r6,r9,r6,LSL #6
        0x0000c63e:    4330        0C      ORRS     r0,r0,r6
        0x0000c640:    5d3e        >]      LDRB     r6,[r7,r4]
        0x0000c642:    f0160f01    ....    TST      r6,#1
        0x0000c646:    d10d        ..      BNE      0xc664 ; am_hal_gpio_pinconfig + 112
        0x0000c648:    e016        ..      B        0xc678 ; am_hal_gpio_pinconfig + 132
        0x0000c64a:    2e06        ..      CMP      r6,#6
        0x0000c64c:    d004        ..      BEQ      0xc658 ; am_hal_gpio_pinconfig + 100
        0x0000c64e:    2e01        ..      CMP      r6,#1
        0x0000c650:    bf08        ..      IT       EQ
        0x0000c652:    2c14        .,      CMPEQ    r4,#0x14
        0x0000c654:    d010        ..      BEQ      0xc678 ; am_hal_gpio_pinconfig + 132
        0x0000c656:    e005        ..      B        0xc664 ; am_hal_gpio_pinconfig + 112
        0x0000c658:    2c14        .,      CMP      r4,#0x14
        0x0000c65a:    bf1e        ..      ITTT     NE
        0x0000c65c:    487a        zH      LDRNE    r0,[pc,#488] ; [0xc848] = 0x8000101
        0x0000c65e:    b00b        ..      ADDNE    sp,sp,#0x2c
        0x0000c660:    e8bd8ff0    ....    POPNE    {r4-r11,pc}
        0x0000c664:    f1bc0f00    ....    CMP      r12,#0
        0x0000c668:    d012        ..      BEQ      0xc690 ; am_hal_gpio_pinconfig + 156
        0x0000c66a:    f1bc0f01    ....    CMP      r12,#1
        0x0000c66e:    d007        ..      BEQ      0xc680 ; am_hal_gpio_pinconfig + 140
        0x0000c670:    f1bc0f02    ....    CMP      r12,#2
        0x0000c674:    d03a        :.      BEQ      0xc6ec ; am_hal_gpio_pinconfig + 248
        0x0000c676:    e041        A.      B        0xc6fc ; am_hal_gpio_pinconfig + 264
        0x0000c678:    b00b        ..      ADD      sp,sp,#0x2c
        0x0000c67a:    4640        @F      MOV      r0,r8
        0x0000c67c:    e8bd8ff0    ....    POP      {r4-r11,pc}
        0x0000c680:    f817c004    ....    LDRB     r12,[r7,r4]
        0x0000c684:    f01c0f02    ....    TST      r12,#2
        0x0000c688:    bf18        ..      IT       NE
        0x0000c68a:    f0400040    @.@.    ORRNE    r0,r0,#0x40
        0x0000c68e:    d035        5.      BEQ      0xc6fc ; am_hal_gpio_pinconfig + 264
        0x0000c690:    f8dfc1b8    ....    LDR      r12,[pc,#440] ; [0xc84c] = 0xe2f0
        0x0000c694:    f81c6004    ...`    LDRB     r6,[r12,r4]
        0x0000c698:    f04f0c01    O...    MOV      r12,#1
        0x0000c69c:    fa0cfc03    ....    LSL      r12,r12,r3
        0x0000c6a0:    ea160c0c    ....    ANDS     r12,r6,r12
        0x0000c6a4:    bf18        ..      IT       NE
        0x0000c6a6:    f04f0c02    O...    MOVNE    r12,#2
        0x0000c6aa:    ea4c0000    L...    ORR      r0,r12,r0
        0x0000c6ae:    f8dfc1a0    ....    LDR      r12,[pc,#416] ; [0xc850] = 0xe354
        0x0000c6b2:    f81cc004    ....    LDRB     r12,[r12,r4]
        0x0000c6b6:    459c        .E      CMP      r12,r3
        0x0000c6b8:    d132        2.      BNE      0xc720 ; am_hal_gpio_pinconfig + 300
        0x0000c6ba:    f3c14302    ...C    UBFX     r3,r1,#16,#3
        0x0000c6be:    2b06        .+      CMP      r3,#6
        0x0000c6c0:    bf82        ..      ITTT     HI
        0x0000c6c2:    4864        dH      LDRHI    r0,[pc,#400] ; [0xc854] = 0x8000103
        0x0000c6c4:    b00b        ..      ADDHI    sp,sp,#0x2c
        0x0000c6c6:    e8bd8ff0    ....    POPHI    {r4-r11,pc}
        0x0000c6ca:    f3c14cc1    ...L    UBFX     r12,r1,#19,#2
        0x0000c6ce:    ea4c1603    L...    ORR      r6,r12,r3,LSL #4
        0x0000c6d2:    f8dfc184    ....    LDR      r12,[pc,#388] ; [0xc858] = 0xe386
        0x0000c6d6:    2300        .#      MOVS     r3,#0
        0x0000c6d8:    eb0c0c84    ....    ADD      r12,r12,r4,LSL #2
        0x0000c6dc:    f81c7003    ...p    LDRB     r7,[r12,r3]
        0x0000c6e0:    42b7        .B      CMP      r7,r6
        0x0000c6e2:    d00f        ..      BEQ      0xc704 ; am_hal_gpio_pinconfig + 272
        0x0000c6e4:    1c5b        [.      ADDS     r3,r3,#1
        0x0000c6e6:    2b04        .+      CMP      r3,#4
        0x0000c6e8:    d3f8        ..      BCC      0xc6dc ; am_hal_gpio_pinconfig + 232
        0x0000c6ea:    e00d        ..      B        0xc708 ; am_hal_gpio_pinconfig + 276
        0x0000c6ec:    f817c004    ....    LDRB     r12,[r7,r4]
        0x0000c6f0:    f01c0f04    ....    TST      r12,#4
        0x0000c6f4:    bf18        ..      IT       NE
        0x0000c6f6:    f0400080    @...    ORRNE    r0,r0,#0x80
        0x0000c6fa:    d1c9        ..      BNE      0xc690 ; am_hal_gpio_pinconfig + 156
        0x0000c6fc:    b00b        ..      ADD      sp,sp,#0x2c
        0x0000c6fe:    4857        WH      LDR      r0,[pc,#348] ; [0xc85c] = 0x8000102
        0x0000c700:    e8bd8ff0    ....    POP      {r4-r11,pc}
        0x0000c704:    2b04        .+      CMP      r3,#4
        0x0000c706:    d303        ..      BCC      0xc710 ; am_hal_gpio_pinconfig + 284
        0x0000c708:    b00b        ..      ADD      sp,sp,#0x2c
        0x0000c70a:    4855        UH      LDR      r0,[pc,#340] ; [0xc860] = 0x8000104
        0x0000c70c:    e8bd8ff0    ....    POP      {r4-r11,pc}
        0x0000c710:    005b        [.      LSLS     r3,r3,#1
        0x0000c712:    f3c15c40    ..@\    UBFX     r12,r1,#21,#1
        0x0000c716:    ea430ccc    C...    ORR      r12,r3,r12,LSL #3
        0x0000c71a:    ea4c0302    L...    ORR      r3,r12,r2
        0x0000c71e:    e022        ".      B        0xc766 ; am_hal_gpio_pinconfig + 370
        0x0000c720:    f3c13300    ...3    UBFX     r3,r1,#12,#1
        0x0000c724:    f3c12c81    ...,    UBFX     r12,r1,#10,#2
        0x0000c728:    ea400043    @.C.    ORR      r0,r0,r3,LSL #1
        0x0000c72c:    ea4f064c    O.L.    LSL      r6,r12,#1
        0x0000c730:    f3c13340    ..@3    UBFX     r3,r1,#13,#1
        0x0000c734:    ea4603c3    F...    ORR      r3,r6,r3,LSL #3
        0x0000c738:    f3c13641    ..A6    UBFX     r6,r1,#13,#2
        0x0000c73c:    ea430356    C.V.    ORR      r3,r3,r6,LSR #1
        0x0000c740:    f1bc0f01    ....    CMP      r12,#1
        0x0000c744:    d005        ..      BEQ      0xc752 ; am_hal_gpio_pinconfig + 350
        0x0000c746:    f8dfc11c    ....    LDR      r12,[pc,#284] ; [0xc864] = 0xe2ec
        0x0000c74a:    f8dcc000    ....    LDR      r12,[r12,#0]
        0x0000c74e:    4561        aE      CMP      r1,r12
        0x0000c750:    d100        ..      BNE      0xc754 ; am_hal_gpio_pinconfig + 352
        0x0000c752:    2501        .%      MOVS     r5,#1
        0x0000c754:    f4114fc0    ...O    TST      r1,#0x6000
        0x0000c758:    d105        ..      BNE      0xc766 ; am_hal_gpio_pinconfig + 370
        0x0000c75a:    f0230301    #...    BIC      r3,r3,#1
        0x0000c75e:    f3c13cc0    ...<    UBFX     r12,r1,#15,#1
        0x0000c762:    ea4c0303    L...    ORR      r3,r12,r3
        0x0000c766:    f3c12101    ...!    UBFX     r1,r1,#8,#2
        0x0000c76a:    b179        y.      CBZ      r1,0xc78c ; am_hal_gpio_pinconfig + 408
        0x0000c76c:    2901        .)      CMP      r1,#1
        0x0000c76e:    bf08        ..      IT       EQ
        0x0000c770:    f0400004    @...    ORREQ    r0,r0,#4
        0x0000c774:    d00a        ..      BEQ      0xc78c ; am_hal_gpio_pinconfig + 408
        0x0000c776:    2902        .)      CMP      r1,#2
        0x0000c778:    bf08        ..      IT       EQ
        0x0000c77a:    f0420201    B...    ORREQ    r2,r2,#1
        0x0000c77e:    d005        ..      BEQ      0xc78c ; am_hal_gpio_pinconfig + 408
        0x0000c780:    2903        .)      CMP      r1,#3
        0x0000c782:    bf04        ..      ITT      EQ
        0x0000c784:    f0400004    @...    ORREQ    r0,r0,#4
        0x0000c788:    f0420201    B...    ORREQ    r2,r2,#1
        0x0000c78c:    f06f0103    o...    MVN      r1,#3
        0x0000c790:    f8dfc0d4    ....    LDR      r12,[pc,#212] ; [0xc868] = 0x40010040
        0x0000c794:    ea010154    ..T.    AND      r1,r1,r4,LSR #1
        0x0000c798:    eb01090c    ....    ADD      r9,r1,r12
        0x0000c79c:    f0240103    $...    BIC      r1,r4,#3
        0x0000c7a0:    f8dfc0c8    ....    LDR      r12,[pc,#200] ; [0xc86c] = 0x400100e0
        0x0000c7a4:    f1014880    ...H    ADD      r8,r1,#0x40000000
        0x0000c7a8:    eb01070c    ....    ADD      r7,r1,r12
        0x0000c7ac:    0761        a.      LSLS     r1,r4,#29
        0x0000c7ae:    ea4f6cd1    O..l    LSR      r12,r1,#27
        0x0000c7b2:    07a1        ..      LSLS     r1,r4,#30
        0x0000c7b4:    0ec9        ..      LSRS     r1,r1,#27
        0x0000c7b6:    260f        .&      MOVS     r6,#0xf
        0x0000c7b8:    fa06f60c    ....    LSL      r6,r6,r12
        0x0000c7bc:    ea6f0a06    o...    MVN      r10,r6
        0x0000c7c0:    26ff        .&      MOVS     r6,#0xff
        0x0000c7c2:    408e        .@      LSLS     r6,r6,r1
        0x0000c7c4:    4088        .@      LSLS     r0,r0,r1
        0x0000c7c6:    9000        ..      STR      r0,[sp,#0]
        0x0000c7c8:    fa02f001    ....    LSL      r0,r2,r1
        0x0000c7cc:    f5083880    ...8    ADD      r8,r8,#0x10000
        0x0000c7d0:    43f6        .C      MVNS     r6,r6
        0x0000c7d2:    fa03fb0c    ....    LSL      r11,r3,r12
        0x0000c7d6:    9002        ..      STR      r0,[sp,#8]
        0x0000c7d8:    f7fffd14    ....    BL       am_hal_interrupt_master_disable ; 0xc204
        0x0000c7dc:    9003        ..      STR      r0,[sp,#0xc]
        0x0000c7de:    b165        e.      CBZ      r5,0xc7fa ; am_hal_gpio_pinconfig + 518
        0x0000c7e0:    f004011f    ....    AND      r1,r4,#0x1f
        0x0000c7e4:    2001        .       MOVS     r0,#1
        0x0000c7e6:    4088        .@      LSLS     r0,r0,r1
        0x0000c7e8:    2104        .!      MOVS     r1,#4
        0x0000c7ea:    ea0101d4    ....    AND      r1,r1,r4,LSR #3
        0x0000c7ee:    f1014180    ...A    ADD      r1,r1,#0x40000000
        0x0000c7f2:    f5013180    ...1    ADD      r1,r1,#0x10000
        0x0000c7f6:    f8c100b4    ....    STR      r0,[r1,#0xb4]
        0x0000c7fa:    481d        .H      LDR      r0,[pc,#116] ; [0xc870] = 0x40010000
        0x0000c7fc:    2173        s!      MOVS     r1,#0x73
        0x0000c7fe:    6601        .f      STR      r1,[r0,#0x60]
        0x0000c800:    f8d81000    ....    LDR      r1,[r8,#0]
        0x0000c804:    ea010206    ....    AND      r2,r1,r6
        0x0000c808:    9900        ..      LDR      r1,[sp,#0]
        0x0000c80a:    4311        .C      ORRS     r1,r1,r2
        0x0000c80c:    f8c81000    ....    STR      r1,[r8,#0]
        0x0000c810:    f8d91000    ....    LDR      r1,[r9,#0]
        0x0000c814:    ea01010a    ....    AND      r1,r1,r10
        0x0000c818:    ea41010b    A...    ORR      r1,r1,r11
        0x0000c81c:    f8c91000    ....    STR      r1,[r9,#0]
        0x0000c820:    6839        9h      LDR      r1,[r7,#0]
        0x0000c822:    ea010206    ....    AND      r2,r1,r6
        0x0000c826:    9902        ..      LDR      r1,[sp,#8]
        0x0000c828:    4311        .C      ORRS     r1,r1,r2
        0x0000c82a:    6039        9`      STR      r1,[r7,#0]
        0x0000c82c:    2100        .!      MOVS     r1,#0
        0x0000c82e:    6601        .f      STR      r1,[r0,#0x60]
        0x0000c830:    9803        ..      LDR      r0,[sp,#0xc]
        0x0000c832:    f7fffceb    ....    BL       am_hal_interrupt_master_set ; 0xc20c
        0x0000c836:    b00b        ..      ADD      sp,sp,#0x2c
        0x0000c838:    2000        .       MOVS     r0,#0
        0x0000c83a:    e8bd8ff0    ....    POP      {r4-r11,pc}
    $d
        0x0000c83e:    0000        ..      DCW    0
        0x0000c840:    0000e322    "...    DCD    58146
        0x0000c844:    08000100    ....    DCD    134217984
        0x0000c848:    08000101    ....    DCD    134217985
        0x0000c84c:    0000e2f0    ....    DCD    58096
        0x0000c850:    0000e354    T...    DCD    58196
        0x0000c854:    08000103    ....    DCD    134217987
        0x0000c858:    0000e386    ....    DCD    58246
        0x0000c85c:    08000102    ....    DCD    134217986
        0x0000c860:    08000104    ....    DCD    134217988
        0x0000c864:    0000e2ec    ....    DCD    58092
        0x0000c868:    40010040    @..@    DCD    1073807424
        0x0000c86c:    400100e0    ...@    DCD    1073807584
        0x0000c870:    40010000    ...@    DCD    1073807360
    $t
    i.am_hal_gpio_state_write
    am_hal_gpio_state_write
        0x0000c874:    b5f8        ..      PUSH     {r3-r7,lr}
        0x0000c876:    2700        .'      MOVS     r7,#0
        0x0000c878:    460d        .F      MOV      r5,r1
        0x0000c87a:    4606        .F      MOV      r6,r0
        0x0000c87c:    2832        2(      CMP      r0,#0x32
        0x0000c87e:    bf24        $.      ITT      CS
        0x0000c880:    2005        .       MOVCS    r0,#5
        0x0000c882:    bdf8        ..      POPCS    {r3-r7,pc}
        0x0000c884:    2d05        .-      CMP      r5,#5
        0x0000c886:    bf84        ..      ITT      HI
        0x0000c888:    2006        .       MOVHI    r0,#6
        0x0000c88a:    bdf8        ..      POPHI    {r3-r7,pc}
        0x0000c88c:    f006001f    ....    AND      r0,r6,#0x1f
        0x0000c890:    2101        .!      MOVS     r1,#1
        0x0000c892:    fa01f400    ....    LSL      r4,r1,r0
        0x0000c896:    f7fffcb5    ....    BL       am_hal_interrupt_master_disable ; 0xc204
        0x0000c89a:    9000        ..      STR      r0,[sp,#0]
        0x0000c89c:    2004        .       MOVS     r0,#4
        0x0000c89e:    ea0000d6    ....    AND      r0,r0,r6,LSR #3
        0x0000c8a2:    f1004080    ...@    ADD      r0,r0,#0x40000000
        0x0000c8a6:    f5003080    ...0    ADD      r0,r0,#0x10000
        0x0000c8aa:    2d06        .-      CMP      r5,#6
        0x0000c8ac:    d21c        ..      BCS      0xc8e8 ; am_hal_gpio_state_write + 116
        0x0000c8ae:    e8dff005    ....    TBB      [pc,r5]
    $d
        0x0000c8b2:    0306        ..      DCW    774
        0x0000c8b4:    150f1209    ....    DCD    353309193
    $t
        0x0000c8b8:    f8c04090    ...@    STR      r4,[r0,#0x90]
        0x0000c8bc:    e015        ..      B        0xc8ea ; am_hal_gpio_state_write + 118
        0x0000c8be:    f8c04098    ...@    STR      r4,[r0,#0x98]
        0x0000c8c2:    e012        ..      B        0xc8ea ; am_hal_gpio_state_write + 118
        0x0000c8c4:    f8d01088    ....    LDR      r1,[r0,#0x88]
        0x0000c8c8:    4061        a@      EORS     r1,r1,r4
        0x0000c8ca:    f8c01088    ....    STR      r1,[r0,#0x88]
        0x0000c8ce:    e00c        ..      B        0xc8ea ; am_hal_gpio_state_write + 118
        0x0000c8d0:    f8c040a8    ...@    STR      r4,[r0,#0xa8]
        0x0000c8d4:    e009        ..      B        0xc8ea ; am_hal_gpio_state_write + 118
        0x0000c8d6:    f8c040b4    ...@    STR      r4,[r0,#0xb4]
        0x0000c8da:    e006        ..      B        0xc8ea ; am_hal_gpio_state_write + 118
        0x0000c8dc:    f8d010b4    ....    LDR      r1,[r0,#0xb4]
        0x0000c8e0:    4061        a@      EORS     r1,r1,r4
        0x0000c8e2:    f8c010b4    ....    STR      r1,[r0,#0xb4]
        0x0000c8e6:    e000        ..      B        0xc8ea ; am_hal_gpio_state_write + 118
        0x0000c8e8:    2706        .'      MOVS     r7,#6
        0x0000c8ea:    9800        ..      LDR      r0,[sp,#0]
        0x0000c8ec:    f7fffc8e    ....    BL       am_hal_interrupt_master_set ; 0xc20c
        0x0000c8f0:    4638        8F      MOV      r0,r7
        0x0000c8f2:    bdf8        ..      POP      {r3-r7,pc}
    i.am_hal_itm_enable
    am_hal_itm_enable
        0x0000c8f4:    480a        .H      LDR      r0,[pc,#40] ; [0xc920] = 0xe000edfc
        0x0000c8f6:    6801        .h      LDR      r1,[r0,#0]
        0x0000c8f8:    f0417180    A..q    ORR      r1,r1,#0x1000000
        0x0000c8fc:    6001        .`      STR      r1,[r0,#0]
        0x0000c8fe:    6801        .h      LDR      r1,[r0,#0]
        0x0000c900:    f0117f80    ....    TST      r1,#0x1000000
        0x0000c904:    d0fb        ..      BEQ      0xc8fe ; am_hal_itm_enable + 10
        0x0000c906:    4908        .I      LDR      r1,[pc,#32] ; [0xc928] = 0xe0000fb0
        0x0000c908:    4806        .H      LDR      r0,[pc,#24] ; [0xc924] = 0xc5acce55
        0x0000c90a:    6008        .`      STR      r0,[r1,#0]
        0x0000c90c:    4907        .I      LDR      r1,[pc,#28] ; [0xc92c] = 0xe0000e40
        0x0000c90e:    200f        .       MOVS     r0,#0xf
        0x0000c910:    6008        .`      STR      r0,[r1,#0]
        0x0000c912:    1748        H.      ASRS     r0,r1,#29
        0x0000c914:    4906        .I      LDR      r1,[pc,#24] ; [0xc930] = 0xe0000e00
        0x0000c916:    6008        .`      STR      r0,[r1,#0]
        0x0000c918:    4907        .I      LDR      r1,[pc,#28] ; [0xc938] = 0xe0000e80
        0x0000c91a:    4806        .H      LDR      r0,[pc,#24] ; [0xc934] = 0x150511
        0x0000c91c:    6008        .`      STR      r0,[r1,#0]
        0x0000c91e:    4770        pG      BX       lr
    $d
        0x0000c920:    e000edfc    ....    DCD    3758157308
        0x0000c924:    c5acce55    U...    DCD    3316436565
        0x0000c928:    e0000fb0    ....    DCD    3758100400
        0x0000c92c:    e0000e40    @...    DCD    3758100032
        0x0000c930:    e0000e00    ....    DCD    3758099968
        0x0000c934:    00150511    ....    DCD    1377553
        0x0000c938:    e0000e80    ....    DCD    3758100096
    $t
    i.am_hal_itm_print
    am_hal_itm_print
        0x0000c93c:    7802        .x      LDRB     r2,[r0,#0]
        0x0000c93e:    2100        .!      MOVS     r1,#0
        0x0000c940:    2a00        .*      CMP      r2,#0
        0x0000c942:    bf08        ..      IT       EQ
        0x0000c944:    4770        pG      BXEQ     lr
        0x0000c946:    1c49        I.      ADDS     r1,r1,#1
        0x0000c948:    5c42        B\      LDRB     r2,[r0,r1]
        0x0000c94a:    2a00        .*      CMP      r2,#0
        0x0000c94c:    d1fb        ..      BNE      0xc946 ; am_hal_itm_print + 10
        0x0000c94e:    2900        .)      CMP      r1,#0
        0x0000c950:    bf08        ..      IT       EQ
        0x0000c952:    4770        pG      BXEQ     lr
        0x0000c954:    f810cb01    ....    LDRB     r12,[r0],#1
        0x0000c958:    f04f4260    O.`B    MOV      r2,#0xe0000000
        0x0000c95c:    6813        .h      LDR      r3,[r2,#0]
        0x0000c95e:    2b00        .+      CMP      r3,#0
        0x0000c960:    d0fc        ..      BEQ      0xc95c ; am_hal_itm_print + 32
        0x0000c962:    f882c000    ....    STRB     r12,[r2,#0]
        0x0000c966:    1e49        I.      SUBS     r1,r1,#1
        0x0000c968:    d1f4        ..      BNE      0xc954 ; am_hal_itm_print + 24
        0x0000c96a:    4770        pG      BX       lr
    i.am_hal_mcuctrl_info_get
    am_hal_mcuctrl_info_get
        0x0000c96c:    b129        ).      CBZ      r1,0xc97a ; am_hal_mcuctrl_info_get + 14
        0x0000c96e:    4a45        EJ      LDR      r2,[pc,#276] ; [0xca84] = 0x40020000
        0x0000c970:    b128        (.      CBZ      r0,0xc97e ; am_hal_mcuctrl_info_get + 18
        0x0000c972:    2801        .(      CMP      r0,#1
        0x0000c974:    d017        ..      BEQ      0xc9a6 ; am_hal_mcuctrl_info_get + 58
        0x0000c976:    2802        .(      CMP      r0,#2
        0x0000c978:    d069        i.      BEQ      0xca4e ; am_hal_mcuctrl_info_get + 226
        0x0000c97a:    2006        .       MOVS     r0,#6
        0x0000c97c:    4770        pG      BX       lr
        0x0000c97e:    6990        .i      LDR      r0,[r2,#0x18]
        0x0000c980:    f3c01380    ....    UBFX     r3,r0,#6,#1
        0x0000c984:    700b        .p      STRB     r3,[r1,#0]
        0x0000c986:    f3c00080    ....    UBFX     r0,r0,#2,#1
        0x0000c98a:    7048        Hp      STRB     r0,[r1,#1]
        0x0000c98c:    f8d201a0    ....    LDR      r0,[r2,#0x1a0]
        0x0000c990:    f3c06081    ...`    UBFX     r0,r0,#26,#2
        0x0000c994:    7108        .q      STRB     r0,[r1,#4]
        0x0000c996:    6950        Pi      LDR      r0,[r2,#0x14]
        0x0000c998:    f3c00240    ..@.    UBFX     r2,r0,#1,#1
        0x0000c99c:    708a        .p      STRB     r2,[r1,#2]
        0x0000c99e:    f0000001    ....    AND      r0,r0,#1
        0x0000c9a2:    70c8        .p      STRB     r0,[r1,#3]
        0x0000c9a4:    e06b        k.      B        0xca7e ; am_hal_mcuctrl_info_get + 274
        0x0000c9a6:    6810        .h      LDR      r0,[r2,#0]
        0x0000c9a8:    6008        .`      STR      r0,[r1,#0]
        0x0000c9aa:    6853        Sh      LDR      r3,[r2,#4]
        0x0000c9ac:    604b        K`      STR      r3,[r1,#4]
        0x0000c9ae:    6893        .h      LDR      r3,[r2,#8]
        0x0000c9b0:    608b        .`      STR      r3,[r1,#8]
        0x0000c9b2:    68d3        .h      LDR      r3,[r2,#0xc]
        0x0000c9b4:    60cb        .`      STR      r3,[r1,#0xc]
        0x0000c9b6:    6913        .i      LDR      r3,[r2,#0x10]
        0x0000c9b8:    610b        .a      STR      r3,[r1,#0x10]
        0x0000c9ba:    6952        Ri      LDR      r2,[r2,#0x14]
        0x0000c9bc:    614a        Ja      STR      r2,[r1,#0x14]
        0x0000c9be:    f0000201    ....    AND      r2,r0,#1
        0x0000c9c2:    618a        .a      STR      r2,[r1,#0x18]
        0x0000c9c4:    223c        <"      MOVS     r2,#0x3c
        0x0000c9c6:    ea024390    ...C    AND      r3,r2,r0,LSR #18
        0x0000c9ca:    f8dfc0bc    ....    LDR      r12,[pc,#188] ; [0xca88] = 0xe458
        0x0000c9ce:    ea023090    ...0    AND      r0,r2,r0,LSR #14
        0x0000c9d2:    f10c0240    ..@.    ADD      r2,r12,#0x40
        0x0000c9d6:    f85c3003    \..0    LDR      r3,[r12,r3]
        0x0000c9da:    61cb        .a      STR      r3,[r1,#0x1c]
        0x0000c9dc:    5810        .X      LDR      r0,[r2,r0]
        0x0000c9de:    6208        .b      STR      r0,[r1,#0x20]
        0x0000c9e0:    482a        *H      LDR      r0,[pc,#168] ; [0xca8c] = 0xf0000fe0
        0x0000c9e2:    6800        .h      LDR      r0,[r0,#0]
        0x0000c9e4:    4a2a        *J      LDR      r2,[pc,#168] ; [0xca90] = 0xf0000fe4
        0x0000c9e6:    b2c0        ..      UXTB     r0,r0
        0x0000c9e8:    6248        Hb      STR      r0,[r1,#0x24]
        0x0000c9ea:    6813        .h      LDR      r3,[r2,#0]
        0x0000c9ec:    f003030f    ....    AND      r3,r3,#0xf
        0x0000c9f0:    ea402003    @..     ORR      r0,r0,r3,LSL #8
        0x0000c9f4:    6248        Hb      STR      r0,[r1,#0x24]
        0x0000c9f6:    6810        .h      LDR      r0,[r2,#0]
        0x0000c9f8:    1d12        ..      ADDS     r2,r2,#4
        0x0000c9fa:    f3c01003    ....    UBFX     r0,r0,#4,#4
        0x0000c9fe:    6288        .b      STR      r0,[r1,#0x28]
        0x0000ca00:    6813        .h      LDR      r3,[r2,#0]
        0x0000ca02:    f003030f    ....    AND      r3,r3,#0xf
        0x0000ca06:    ea401003    @...    ORR      r0,r0,r3,LSL #4
        0x0000ca0a:    6288        .b      STR      r0,[r1,#0x28]
        0x0000ca0c:    6810        .h      LDR      r0,[r2,#0]
        0x0000ca0e:    f3c01003    ....    UBFX     r0,r0,#4,#4
        0x0000ca12:    0100        ..      LSLS     r0,r0,#4
        0x0000ca14:    1d12        ..      ADDS     r2,r2,#4
        0x0000ca16:    62c8        .b      STR      r0,[r1,#0x2c]
        0x0000ca18:    6812        .h      LDR      r2,[r2,#0]
        0x0000ca1a:    f3c21203    ....    UBFX     r2,r2,#4,#4
        0x0000ca1e:    4310        .C      ORRS     r0,r0,r2
        0x0000ca20:    62c8        .b      STR      r0,[r1,#0x2c]
        0x0000ca22:    481c        .H      LDR      r0,[pc,#112] ; [0xca94] = 0xf0000ffc
        0x0000ca24:    6800        .h      LDR      r0,[r0,#0]
        0x0000ca26:    4a1c        .J      LDR      r2,[pc,#112] ; [0xca98] = 0xf0000ff8
        0x0000ca28:    0600        ..      LSLS     r0,r0,#24
        0x0000ca2a:    6308        .c      STR      r0,[r1,#0x30]
        0x0000ca2c:    6812        .h      LDR      r2,[r2,#0]
        0x0000ca2e:    b2d2        ..      UXTB     r2,r2
        0x0000ca30:    ea404002    @..@    ORR      r0,r0,r2,LSL #16
        0x0000ca34:    4a19        .J      LDR      r2,[pc,#100] ; [0xca9c] = 0xf0000ff4
        0x0000ca36:    6308        .c      STR      r0,[r1,#0x30]
        0x0000ca38:    6812        .h      LDR      r2,[r2,#0]
        0x0000ca3a:    b2d2        ..      UXTB     r2,r2
        0x0000ca3c:    ea402002    @..     ORR      r0,r0,r2,LSL #8
        0x0000ca40:    4a17        .J      LDR      r2,[pc,#92] ; [0xcaa0] = 0xf0000ff0
        0x0000ca42:    6308        .c      STR      r0,[r1,#0x30]
        0x0000ca44:    6812        .h      LDR      r2,[r2,#0]
        0x0000ca46:    b2d2        ..      UXTB     r2,r2
        0x0000ca48:    4310        .C      ORRS     r0,r0,r2
        0x0000ca4a:    6308        .c      STR      r0,[r1,#0x30]
        0x0000ca4c:    e017        ..      B        0xca7e ; am_hal_mcuctrl_info_get + 274
        0x0000ca4e:    f8d201cc    ....    LDR      r0,[r2,#0x1cc]
        0x0000ca52:    f0000301    ....    AND      r3,r0,#1
        0x0000ca56:    700b        .p      STRB     r3,[r1,#0]
        0x0000ca58:    f3c00340    ..@.    UBFX     r3,r0,#1,#1
        0x0000ca5c:    720b        .r      STRB     r3,[r1,#8]
        0x0000ca5e:    f3c00080    ....    UBFX     r0,r0,#2,#1
        0x0000ca62:    7408        .t      STRB     r0,[r1,#0x10]
        0x0000ca64:    f8d201c4    ....    LDR      r0,[r2,#0x1c4]
        0x0000ca68:    60c8        .`      STR      r0,[r1,#0xc]
        0x0000ca6a:    6848        Hh      LDR      r0,[r1,#4]
        0x0000ca6c:    f8d231c0    ...1    LDR      r3,[r2,#0x1c0]
        0x0000ca70:    4318        .C      ORRS     r0,r0,r3
        0x0000ca72:    6048        H`      STR      r0,[r1,#4]
        0x0000ca74:    6948        Hi      LDR      r0,[r1,#0x14]
        0x0000ca76:    f8d221c8    ...!    LDR      r2,[r2,#0x1c8]
        0x0000ca7a:    4310        .C      ORRS     r0,r0,r2
        0x0000ca7c:    6148        Ha      STR      r0,[r1,#0x14]
        0x0000ca7e:    2000        .       MOVS     r0,#0
        0x0000ca80:    4770        pG      BX       lr
    $d
        0x0000ca82:    0000        ..      DCW    0
        0x0000ca84:    40020000    ...@    DCD    1073872896
        0x0000ca88:    0000e458    X...    DCD    58456
        0x0000ca8c:    f0000fe0    ....    DCD    4026535904
        0x0000ca90:    f0000fe4    ....    DCD    4026535908
        0x0000ca94:    f0000ffc    ....    DCD    4026535932
        0x0000ca98:    f0000ff8    ....    DCD    4026535928
        0x0000ca9c:    f0000ff4    ....    DCD    4026535924
        0x0000caa0:    f0000ff0    ....    DCD    4026535920
    $t
    i.am_hal_pdm_configure
    am_hal_pdm_configure
        0x0000caa4:    b510        ..      PUSH     {r4,lr}
        0x0000caa6:    b084        ..      SUB      sp,sp,#0x10
        0x0000caa8:    2800        .(      CMP      r0,#0
        0x0000caaa:    bf1c        ..      ITT      NE
        0x0000caac:    6800        .h      LDRNE    r0,[r0,#0]
        0x0000caae:    f0107f80    ....    TSTNE    r0,#0x1000000
        0x0000cab2:    d004        ..      BEQ      0xcabe ; am_hal_pdm_configure + 26
        0x0000cab4:    4a3d        =J      LDR      r2,[pc,#244] ; [0xcbac] = 0xf956e2
        0x0000cab6:    f020407f     ..@    BIC      r0,r0,#0xff000000
        0x0000caba:    4290        .B      CMP      r0,r2
        0x0000cabc:    d002        ..      BEQ      0xcac4 ; am_hal_pdm_configure + 32
        0x0000cabe:    b004        ..      ADD      sp,sp,#0x10
        0x0000cac0:    2002        .       MOVS     r0,#2
        0x0000cac2:    bd10        ..      POP      {r4,pc}
        0x0000cac4:    4c3a        :L      LDR      r4,[pc,#232] ; [0xcbb0] = 0x50011000
        0x0000cac6:    7f4a        J.      LDRB     r2,[r1,#0x1d]
        0x0000cac8:    6820         h      LDR      r0,[r4,#0]
        0x0000caca:    f3620041    b.A.    BFI      r0,r2,#1,#1
        0x0000cace:    6020         `      STR      r0,[r4,#0]
        0x0000cad0:    7e0a        .~      LDRB     r2,[r1,#0x18]
        0x0000cad2:    6820         h      LDR      r0,[r4,#0]
        0x0000cad4:    f3620084    b...    BFI      r0,r2,#2,#3
        0x0000cad8:    6020         `      STR      r0,[r4,#0]
        0x0000cada:    7b0a        .{      LDRB     r2,[r1,#0xc]
        0x0000cadc:    6820         h      LDR      r0,[r4,#0]
        0x0000cade:    f3621048    b.H.    BFI      r0,r2,#5,#4
        0x0000cae2:    6020         `      STR      r0,[r4,#0]
        0x0000cae4:    7a0a        .z      LDRB     r2,[r1,#8]
        0x0000cae6:    6820         h      LDR      r0,[r4,#0]
        0x0000cae8:    f3622049    b.I     BFI      r0,r2,#9,#1
        0x0000caec:    6020         `      STR      r0,[r4,#0]
        0x0000caee:    790a        .y      LDRB     r2,[r1,#4]
        0x0000caf0:    6820         h      LDR      r0,[r4,#0]
        0x0000caf2:    f3622090    b..     BFI      r0,r2,#10,#7
        0x0000caf6:    6020         `      STR      r0,[r4,#0]
        0x0000caf8:    780a        .x      LDRB     r2,[r1,#0]
        0x0000cafa:    6820         h      LDR      r0,[r4,#0]
        0x0000cafc:    f3624052    b.R@    BFI      r0,r2,#17,#2
        0x0000cb00:    6020         `      STR      r0,[r4,#0]
        0x0000cb02:    784a        Jx      LDRB     r2,[r1,#1]
        0x0000cb04:    6820         h      LDR      r0,[r4,#0]
        0x0000cb06:    f3625059    b.YP    BFI      r0,r2,#21,#5
        0x0000cb0a:    6020         `      STR      r0,[r4,#0]
        0x0000cb0c:    788a        .x      LDRB     r2,[r1,#2]
        0x0000cb0e:    6820         h      LDR      r0,[r4,#0]
        0x0000cb10:    f362609e    b..`    BFI      r0,r2,#26,#5
        0x0000cb14:    6020         `      STR      r0,[r4,#0]
        0x0000cb16:    7f8a        ..      LDRB     r2,[r1,#0x1e]
        0x0000cb18:    6820         h      LDR      r0,[r4,#0]
        0x0000cb1a:    f36270df    b..p    BFI      r0,r2,#31,#1
        0x0000cb1e:    6020         `      STR      r0,[r4,#0]
        0x0000cb20:    6820         h      LDR      r0,[r4,#0]
        0x0000cb22:    f0400001    @...    ORR      r0,r0,#1
        0x0000cb26:    6020         `      STR      r0,[r4,#0]
        0x0000cb28:    6860        `h      LDR      r0,[r4,#4]
        0x0000cb2a:    f0206080     ..`    BIC      r0,r0,#0x4000000
        0x0000cb2e:    6060        ``      STR      r0,[r4,#4]
        0x0000cb30:    6860        `h      LDR      r0,[r4,#4]
        0x0000cb32:    f0204000     ..@    BIC      r0,r0,#0x80000000
        0x0000cb36:    6060        ``      STR      r0,[r4,#4]
        0x0000cb38:    6860        `h      LDR      r0,[r4,#4]
        0x0000cb3a:    f0204080     ..@    BIC      r0,r0,#0x40000000
        0x0000cb3e:    6060        ``      STR      r0,[r4,#4]
        0x0000cb40:    7d4a        J}      LDRB     r2,[r1,#0x15]
        0x0000cb42:    6860        `h      LDR      r0,[r4,#4]
        0x0000cb44:    f36200c4    b...    BFI      r0,r2,#3,#2
        0x0000cb48:    6060        ``      STR      r0,[r4,#4]
        0x0000cb4a:    7d0a        .}      LDRB     r2,[r1,#0x14]
        0x0000cb4c:    6860        `h      LDR      r0,[r4,#4]
        0x0000cb4e:    f3622008    b..     BFI      r0,r2,#8,#1
        0x0000cb52:    6060        ``      STR      r0,[r4,#4]
        0x0000cb54:    7c8a        .|      LDRB     r2,[r1,#0x12]
        0x0000cb56:    6860        `h      LDR      r0,[r4,#4]
        0x0000cb58:    f3624010    b..@    BFI      r0,r2,#16,#1
        0x0000cb5c:    6060        ``      STR      r0,[r4,#4]
        0x0000cb5e:    7cca        .|      LDRB     r2,[r1,#0x13]
        0x0000cb60:    6860        `h      LDR      r0,[r4,#4]
        0x0000cb62:    f3624051    b.Q@    BFI      r0,r2,#17,#1
        0x0000cb66:    6060        ``      STR      r0,[r4,#4]
        0x0000cb68:    7c4a        J|      LDRB     r2,[r1,#0x11]
        0x0000cb6a:    6860        `h      LDR      r0,[r4,#4]
        0x0000cb6c:    f36240d3    b..@    BFI      r0,r2,#19,#1
        0x0000cb70:    6060        ``      STR      r0,[r4,#4]
        0x0000cb72:    7f0a        ..      LDRB     r2,[r1,#0x1c]
        0x0000cb74:    6860        `h      LDR      r0,[r4,#4]
        0x0000cb76:    f3625014    b..P    BFI      r0,r2,#20,#1
        0x0000cb7a:    6060        ``      STR      r0,[r4,#4]
        0x0000cb7c:    7c09        .|      LDRB     r1,[r1,#0x10]
        0x0000cb7e:    6860        `h      LDR      r0,[r4,#4]
        0x0000cb80:    f36160dd    a..`    BFI      r0,r1,#27,#3
        0x0000cb84:    6060        ``      STR      r0,[r4,#4]
        0x0000cb86:    4668        hF      MOV      r0,sp
        0x0000cb88:    f7fffd08    ....    BL       am_hal_clkgen_status_get ; 0xc59c
        0x0000cb8c:    4909        .I      LDR      r1,[pc,#36] ; [0xcbb4] = 0x2dc6c0
        0x0000cb8e:    9800        ..      LDR      r0,[sp,#0]
        0x0000cb90:    fbb0f0f1    ....    UDIV     r0,r0,r1
        0x0000cb94:    2164        d!      MOVS     r1,#0x64
        0x0000cb96:    4348        HC      MULS     r0,r1,r0
        0x0000cb98:    f7fffd1a    ....    BL       am_hal_flash_delay ; 0xc5d0
        0x0000cb9c:    6860        `h      LDR      r0,[r4,#4]
        0x0000cb9e:    f0404080    @..@    ORR      r0,r0,#0x40000000
        0x0000cba2:    6060        ``      STR      r0,[r4,#4]
        0x0000cba4:    b004        ..      ADD      sp,sp,#0x10
        0x0000cba6:    2000        .       MOVS     r0,#0
        0x0000cba8:    bd10        ..      POP      {r4,pc}
    $d
        0x0000cbaa:    0000        ..      DCW    0
        0x0000cbac:    00f956e2    .V..    DCD    16340706
        0x0000cbb0:    50011000    ...P    DCD    1342246912
        0x0000cbb4:    002dc6c0    ..-.    DCD    3000000
    $t
    i.am_hal_pdm_disable
    am_hal_pdm_disable
        0x0000cbb8:    2800        .(      CMP      r0,#0
        0x0000cbba:    bf1c        ..      ITT      NE
        0x0000cbbc:    6800        .h      LDRNE    r0,[r0,#0]
        0x0000cbbe:    f0107f80    ....    TSTNE    r0,#0x1000000
        0x0000cbc2:    d004        ..      BEQ      0xcbce ; am_hal_pdm_disable + 22
        0x0000cbc4:    4908        .I      LDR      r1,[pc,#32] ; [0xcbe8] = 0xf956e2
        0x0000cbc6:    f020407f     ..@    BIC      r0,r0,#0xff000000
        0x0000cbca:    4288        .B      CMP      r0,r1
        0x0000cbcc:    d001        ..      BEQ      0xcbd2 ; am_hal_pdm_disable + 26
        0x0000cbce:    2002        .       MOVS     r0,#2
        0x0000cbd0:    4770        pG      BX       lr
        0x0000cbd2:    4806        .H      LDR      r0,[pc,#24] ; [0xcbec] = 0x50011000
        0x0000cbd4:    6841        Ah      LDR      r1,[r0,#4]
        0x0000cbd6:    f0214100    !..A    BIC      r1,r1,#0x80000000
        0x0000cbda:    6041        A`      STR      r1,[r0,#4]
        0x0000cbdc:    6841        Ah      LDR      r1,[r0,#4]
        0x0000cbde:    f0216180    !..a    BIC      r1,r1,#0x4000000
        0x0000cbe2:    6041        A`      STR      r1,[r0,#4]
        0x0000cbe4:    2000        .       MOVS     r0,#0
        0x0000cbe6:    4770        pG      BX       lr
    $d
        0x0000cbe8:    00f956e2    .V..    DCD    16340706
        0x0000cbec:    50011000    ...P    DCD    1342246912
    $t
    i.am_hal_pdm_dma_start
    am_hal_pdm_dma_start
        0x0000cbf0:    2800        .(      CMP      r0,#0
        0x0000cbf2:    bf1c        ..      ITT      NE
        0x0000cbf4:    6800        .h      LDRNE    r0,[r0,#0]
        0x0000cbf6:    f0107f80    ....    TSTNE    r0,#0x1000000
        0x0000cbfa:    d004        ..      BEQ      0xcc06 ; am_hal_pdm_dma_start + 22
        0x0000cbfc:    4a1f        .J      LDR      r2,[pc,#124] ; [0xcc7c] = 0xf956e2
        0x0000cbfe:    f020407f     ..@    BIC      r0,r0,#0xff000000
        0x0000cc02:    4290        .B      CMP      r0,r2
        0x0000cc04:    d001        ..      BEQ      0xcc0a ; am_hal_pdm_dma_start + 26
        0x0000cc06:    2002        .       MOVS     r0,#2
        0x0000cc08:    4770        pG      BX       lr
        0x0000cc0a:    2310        .#      MOVS     r3,#0x10
        0x0000cc0c:    684a        Jh      LDR      r2,[r1,#4]
        0x0000cc0e:    2018        .       MOVS     r0,#0x18
        0x0000cc10:    fbb2fcf0    ....    UDIV     r12,r2,r0
        0x0000cc14:    fb002c1c    ...,    MLS      r12,r0,r12,r2
        0x0000cc18:    f1bc0f00    ....    CMP      r12,#0
        0x0000cc1c:    d002        ..      BEQ      0xcc24 ; am_hal_pdm_dma_start + 52
        0x0000cc1e:    1f00        ..      SUBS     r0,r0,#4
        0x0000cc20:    4298        .B      CMP      r0,r3
        0x0000cc22:    d2f5        ..      BCS      0xcc10 ; am_hal_pdm_dma_start + 32
        0x0000cc24:    4298        .B      CMP      r0,r3
        0x0000cc26:    d325        %.      BCC      0xcc74 ; am_hal_pdm_dma_start + 132
        0x0000cc28:    b320         .      CBZ      r0,0xcc74 ; am_hal_pdm_dma_start + 132
        0x0000cc2a:    4a15        .J      LDR      r2,[pc,#84] ; [0xcc80] = 0x50011000
        0x0000cc2c:    6150        Pa      STR      r0,[r2,#0x14]
        0x0000cc2e:    2000        .       MOVS     r0,#0
        0x0000cc30:    f8c20280    ....    STR      r0,[r2,#0x280]
        0x0000cc34:    f8d20280    ....    LDR      r0,[r2,#0x280]
        0x0000cc38:    f4207080     ..p    BIC      r0,r0,#0x100
        0x0000cc3c:    f8c20280    ....    STR      r0,[r2,#0x280]
        0x0000cc40:    f8d20280    ....    LDR      r0,[r2,#0x280]
        0x0000cc44:    f0200004     ...    BIC      r0,r0,#4
        0x0000cc48:    f8c20280    ....    STR      r0,[r2,#0x280]
        0x0000cc4c:    6848        Hh      LDR      r0,[r1,#4]
        0x0000cc4e:    f8c20288    ....    STR      r0,[r2,#0x288]
        0x0000cc52:    6808        .h      LDR      r0,[r1,#0]
        0x0000cc54:    f8c2028c    ....    STR      r0,[r2,#0x28c]
        0x0000cc58:    f8d20240    ..@.    LDR      r0,[r2,#0x240]
        0x0000cc5c:    f0400001    @...    ORR      r0,r0,#1
        0x0000cc60:    f8c20240    ..@.    STR      r0,[r2,#0x240]
        0x0000cc64:    f8d20280    ....    LDR      r0,[r2,#0x280]
        0x0000cc68:    f0400001    @...    ORR      r0,r0,#1
        0x0000cc6c:    f8c20280    ....    STR      r0,[r2,#0x280]
        0x0000cc70:    2000        .       MOVS     r0,#0
        0x0000cc72:    4770        pG      BX       lr
        0x0000cc74:    f04f6000    O..`    MOV      r0,#0x8000000
        0x0000cc78:    4770        pG      BX       lr
    $d
        0x0000cc7a:    0000        ..      DCW    0
        0x0000cc7c:    00f956e2    .V..    DCD    16340706
        0x0000cc80:    50011000    ...P    DCD    1342246912
    $t
    i.am_hal_pdm_enable
    am_hal_pdm_enable
        0x0000cc84:    2800        .(      CMP      r0,#0
        0x0000cc86:    bf1c        ..      ITT      NE
        0x0000cc88:    6800        .h      LDRNE    r0,[r0,#0]
        0x0000cc8a:    f0107f80    ....    TSTNE    r0,#0x1000000
        0x0000cc8e:    d004        ..      BEQ      0xcc9a ; am_hal_pdm_enable + 22
        0x0000cc90:    4908        .I      LDR      r1,[pc,#32] ; [0xccb4] = 0xf956e2
        0x0000cc92:    f020407f     ..@    BIC      r0,r0,#0xff000000
        0x0000cc96:    4288        .B      CMP      r0,r1
        0x0000cc98:    d001        ..      BEQ      0xcc9e ; am_hal_pdm_enable + 26
        0x0000cc9a:    2002        .       MOVS     r0,#2
        0x0000cc9c:    4770        pG      BX       lr
        0x0000cc9e:    4806        .H      LDR      r0,[pc,#24] ; [0xccb8] = 0x50011000
        0x0000cca0:    6841        Ah      LDR      r1,[r0,#4]
        0x0000cca2:    f0414100    A..A    ORR      r1,r1,#0x80000000
        0x0000cca6:    6041        A`      STR      r1,[r0,#4]
        0x0000cca8:    6841        Ah      LDR      r1,[r0,#4]
        0x0000ccaa:    f0416180    A..a    ORR      r1,r1,#0x4000000
        0x0000ccae:    6041        A`      STR      r1,[r0,#4]
        0x0000ccb0:    2000        .       MOVS     r0,#0
        0x0000ccb2:    4770        pG      BX       lr
    $d
        0x0000ccb4:    00f956e2    .V..    DCD    16340706
        0x0000ccb8:    50011000    ...P    DCD    1342246912
    $t
    i.am_hal_pdm_fifo_flush
    am_hal_pdm_fifo_flush
        0x0000ccbc:    2800        .(      CMP      r0,#0
        0x0000ccbe:    bf1c        ..      ITT      NE
        0x0000ccc0:    6800        .h      LDRNE    r0,[r0,#0]
        0x0000ccc2:    f0107f80    ....    TSTNE    r0,#0x1000000
        0x0000ccc6:    d004        ..      BEQ      0xccd2 ; am_hal_pdm_fifo_flush + 22
        0x0000ccc8:    4905        .I      LDR      r1,[pc,#20] ; [0xcce0] = 0xf956e2
        0x0000ccca:    f020407f     ..@    BIC      r0,r0,#0xff000000
        0x0000ccce:    4288        .B      CMP      r0,r1
        0x0000ccd0:    d001        ..      BEQ      0xccd6 ; am_hal_pdm_fifo_flush + 26
        0x0000ccd2:    2002        .       MOVS     r0,#2
        0x0000ccd4:    4770        pG      BX       lr
        0x0000ccd6:    4903        .I      LDR      r1,[pc,#12] ; [0xcce4] = 0x50011000
        0x0000ccd8:    2001        .       MOVS     r0,#1
        0x0000ccda:    6108        .a      STR      r0,[r1,#0x10]
        0x0000ccdc:    2000        .       MOVS     r0,#0
        0x0000ccde:    4770        pG      BX       lr
    $d
        0x0000cce0:    00f956e2    .V..    DCD    16340706
        0x0000cce4:    50011000    ...P    DCD    1342246912
    $t
    i.am_hal_pdm_initialize
    am_hal_pdm_initialize
        0x0000cce8:    2800        .(      CMP      r0,#0
        0x0000ccea:    bf1c        ..      ITT      NE
        0x0000ccec:    2005        .       MOVNE    r0,#5
        0x0000ccee:    4770        pG      BXNE     lr
        0x0000ccf0:    2900        .)      CMP      r1,#0
        0x0000ccf2:    bf04        ..      ITT      EQ
        0x0000ccf4:    2006        .       MOVEQ    r0,#6
        0x0000ccf6:    4770        pG      BXEQ     lr
        0x0000ccf8:    2200        ."      MOVS     r2,#0
        0x0000ccfa:    4809        .H      LDR      r0,[pc,#36] ; [0xcd20] = 0x10009698
        0x0000ccfc:    6803        .h      LDR      r3,[r0,#0]
        0x0000ccfe:    f0137f80    ....    TST      r3,#0x1000000
        0x0000cd02:    bf1c        ..      ITT      NE
        0x0000cd04:    2007        .       MOVNE    r0,#7
        0x0000cd06:    4770        pG      BXNE     lr
        0x0000cd08:    f0437380    C..s    ORR      r3,r3,#0x1000000
        0x0000cd0c:    f8dfc014    ....    LDR      r12,[pc,#20] ; [0xcd24] = 0xf956e2
        0x0000cd10:    f36c0317    l...    BFI      r3,r12,#0,#24
        0x0000cd14:    6003        .`      STR      r3,[r0,#0]
        0x0000cd16:    6082        .`      STR      r2,[r0,#8]
        0x0000cd18:    7102        .q      STRB     r2,[r0,#4]
        0x0000cd1a:    6008        .`      STR      r0,[r1,#0]
        0x0000cd1c:    2000        .       MOVS     r0,#0
        0x0000cd1e:    4770        pG      BX       lr
    $d
        0x0000cd20:    10009698    ....    DCD    268474008
        0x0000cd24:    00f956e2    .V..    DCD    16340706
    $t
    i.am_hal_pdm_interrupt_clear
    am_hal_pdm_interrupt_clear
        0x0000cd28:    2800        .(      CMP      r0,#0
        0x0000cd2a:    bf1c        ..      ITT      NE
        0x0000cd2c:    6800        .h      LDRNE    r0,[r0,#0]
        0x0000cd2e:    f0107f80    ....    TSTNE    r0,#0x1000000
        0x0000cd32:    d004        ..      BEQ      0xcd3e ; am_hal_pdm_interrupt_clear + 22
        0x0000cd34:    4a05        .J      LDR      r2,[pc,#20] ; [0xcd4c] = 0xf956e2
        0x0000cd36:    f020407f     ..@    BIC      r0,r0,#0xff000000
        0x0000cd3a:    4290        .B      CMP      r0,r2
        0x0000cd3c:    d001        ..      BEQ      0xcd42 ; am_hal_pdm_interrupt_clear + 26
        0x0000cd3e:    2002        .       MOVS     r0,#2
        0x0000cd40:    4770        pG      BX       lr
        0x0000cd42:    4803        .H      LDR      r0,[pc,#12] ; [0xcd50] = 0x50011000
        0x0000cd44:    f8c01208    ....    STR      r1,[r0,#0x208]
        0x0000cd48:    2000        .       MOVS     r0,#0
        0x0000cd4a:    4770        pG      BX       lr
    $d
        0x0000cd4c:    00f956e2    .V..    DCD    16340706
        0x0000cd50:    50011000    ...P    DCD    1342246912
    $t
    i.am_hal_pdm_interrupt_enable
    am_hal_pdm_interrupt_enable
        0x0000cd54:    2800        .(      CMP      r0,#0
        0x0000cd56:    bf1c        ..      ITT      NE
        0x0000cd58:    6800        .h      LDRNE    r0,[r0,#0]
        0x0000cd5a:    f0107f80    ....    TSTNE    r0,#0x1000000
        0x0000cd5e:    d004        ..      BEQ      0xcd6a ; am_hal_pdm_interrupt_enable + 22
        0x0000cd60:    4a07        .J      LDR      r2,[pc,#28] ; [0xcd80] = 0xf956e2
        0x0000cd62:    f020407f     ..@    BIC      r0,r0,#0xff000000
        0x0000cd66:    4290        .B      CMP      r0,r2
        0x0000cd68:    d001        ..      BEQ      0xcd6e ; am_hal_pdm_interrupt_enable + 26
        0x0000cd6a:    2002        .       MOVS     r0,#2
        0x0000cd6c:    4770        pG      BX       lr
        0x0000cd6e:    4805        .H      LDR      r0,[pc,#20] ; [0xcd84] = 0x50011000
        0x0000cd70:    f8d02200    ..."    LDR      r2,[r0,#0x200]
        0x0000cd74:    4311        .C      ORRS     r1,r1,r2
        0x0000cd76:    f8c01200    ....    STR      r1,[r0,#0x200]
        0x0000cd7a:    2000        .       MOVS     r0,#0
        0x0000cd7c:    4770        pG      BX       lr
    $d
        0x0000cd7e:    0000        ..      DCW    0
        0x0000cd80:    00f956e2    .V..    DCD    16340706
        0x0000cd84:    50011000    ...P    DCD    1342246912
    $t
    i.am_hal_pdm_interrupt_status_get
    am_hal_pdm_interrupt_status_get
        0x0000cd88:    2800        .(      CMP      r0,#0
        0x0000cd8a:    bf1c        ..      ITT      NE
        0x0000cd8c:    6800        .h      LDRNE    r0,[r0,#0]
        0x0000cd8e:    f0107f80    ....    TSTNE    r0,#0x1000000
        0x0000cd92:    d004        ..      BEQ      0xcd9e ; am_hal_pdm_interrupt_status_get + 22
        0x0000cd94:    4b0a        .K      LDR      r3,[pc,#40] ; [0xcdc0] = 0xf956e2
        0x0000cd96:    f020407f     ..@    BIC      r0,r0,#0xff000000
        0x0000cd9a:    4298        .B      CMP      r0,r3
        0x0000cd9c:    d001        ..      BEQ      0xcda2 ; am_hal_pdm_interrupt_status_get + 26
        0x0000cd9e:    2002        .       MOVS     r0,#2
        0x0000cda0:    4770        pG      BX       lr
        0x0000cda2:    4808        .H      LDR      r0,[pc,#32] ; [0xcdc4] = 0x50011000
        0x0000cda4:    2a00        .*      CMP      r2,#0
        0x0000cda6:    bf08        ..      IT       EQ
        0x0000cda8:    f8d00204    ....    LDREQ    r0,[r0,#0x204]
        0x0000cdac:    d005        ..      BEQ      0xcdba ; am_hal_pdm_interrupt_status_get + 50
        0x0000cdae:    f8d02204    ..."    LDR      r2,[r0,#0x204]
        0x0000cdb2:    600a        .`      STR      r2,[r1,#0]
        0x0000cdb4:    f8d00200    ....    LDR      r0,[r0,#0x200]
        0x0000cdb8:    4010        .@      ANDS     r0,r0,r2
        0x0000cdba:    6008        .`      STR      r0,[r1,#0]
        0x0000cdbc:    2000        .       MOVS     r0,#0
        0x0000cdbe:    4770        pG      BX       lr
    $d
        0x0000cdc0:    00f956e2    .V..    DCD    16340706
        0x0000cdc4:    50011000    ...P    DCD    1342246912
    $t
    i.am_hal_pdm_power_control
    am_hal_pdm_power_control
        0x0000cdc8:    b538        8.      PUSH     {r3-r5,lr}
        0x0000cdca:    7a03        .z      LDRB     r3,[r0,#8]
        0x0000cdcc:    1e04        ..      SUBS     r4,r0,#0
        0x0000cdce:    f103030d    ....    ADD      r3,r3,#0xd
        0x0000cdd2:    b2dd        ..      UXTB     r5,r3
        0x0000cdd4:    bf1c        ..      ITT      NE
        0x0000cdd6:    6820         h      LDRNE    r0,[r4,#0]
        0x0000cdd8:    f0107f80    ....    TSTNE    r0,#0x1000000
        0x0000cddc:    d004        ..      BEQ      0xcde8 ; am_hal_pdm_power_control + 32
        0x0000cdde:    4b18        .K      LDR      r3,[pc,#96] ; [0xce40] = 0xf956e2
        0x0000cde0:    f020407f     ..@    BIC      r0,r0,#0xff000000
        0x0000cde4:    4298        .B      CMP      r0,r3
        0x0000cde6:    d001        ..      BEQ      0xcdec ; am_hal_pdm_power_control + 36
        0x0000cde8:    2002        .       MOVS     r0,#2
        0x0000cdea:    bd38        8.      POP      {r3-r5,pc}
        0x0000cdec:    b191        ..      CBZ      r1,0xce14 ; am_hal_pdm_power_control + 76
        0x0000cdee:    2901        .)      CMP      r1,#1
        0x0000cdf0:    bf1e        ..      ITTT     NE
        0x0000cdf2:    2902        .)      CMPNE    r1,#2
        0x0000cdf4:    2006        .       MOVNE    r0,#6
        0x0000cdf6:    bd38        8.      POPNE    {r3-r5,pc}
        0x0000cdf8:    b13a        :.      CBZ      r2,0xce0a ; am_hal_pdm_power_control + 66
        0x0000cdfa:    f7fffa03    ....    BL       am_hal_interrupt_master_disable ; 0xc204
        0x0000cdfe:    9000        ..      STR      r0,[sp,#0]
        0x0000ce00:    2001        .       MOVS     r0,#1
        0x0000ce02:    7120         q      STRB     r0,[r4,#4]
        0x0000ce04:    9800        ..      LDR      r0,[sp,#0]
        0x0000ce06:    f7fffa01    ....    BL       am_hal_interrupt_master_set ; 0xc20c
        0x0000ce0a:    4628        (F      MOV      r0,r5
        0x0000ce0c:    f000f81a    ....    BL       am_hal_pwrctrl_periph_disable ; 0xce44
        0x0000ce10:    2000        .       MOVS     r0,#0
        0x0000ce12:    bd38        8.      POP      {r3-r5,pc}
        0x0000ce14:    b182        ..      CBZ      r2,0xce38 ; am_hal_pdm_power_control + 112
        0x0000ce16:    7920         y      LDRB     r0,[r4,#4]
        0x0000ce18:    2800        .(      CMP      r0,#0
        0x0000ce1a:    bf04        ..      ITT      EQ
        0x0000ce1c:    2007        .       MOVEQ    r0,#7
        0x0000ce1e:    bd38        8.      POPEQ    {r3-r5,pc}
        0x0000ce20:    4628        (F      MOV      r0,r5
        0x0000ce22:    f000f837    ..7.    BL       am_hal_pwrctrl_periph_enable ; 0xce94
        0x0000ce26:    f7fff9ed    ....    BL       am_hal_interrupt_master_disable ; 0xc204
        0x0000ce2a:    9000        ..      STR      r0,[sp,#0]
        0x0000ce2c:    2000        .       MOVS     r0,#0
        0x0000ce2e:    7120         q      STRB     r0,[r4,#4]
        0x0000ce30:    9800        ..      LDR      r0,[sp,#0]
        0x0000ce32:    f7fff9eb    ....    BL       am_hal_interrupt_master_set ; 0xc20c
        0x0000ce36:    e7eb        ..      B        0xce10 ; am_hal_pdm_power_control + 72
        0x0000ce38:    4628        (F      MOV      r0,r5
        0x0000ce3a:    f000f82b    ..+.    BL       am_hal_pwrctrl_periph_enable ; 0xce94
        0x0000ce3e:    e7e7        ..      B        0xce10 ; am_hal_pdm_power_control + 72
    $d
        0x0000ce40:    00f956e2    .V..    DCD    16340706
    $t
    i.am_hal_pwrctrl_periph_disable
    am_hal_pwrctrl_periph_disable
        0x0000ce44:    b5f8        ..      PUSH     {r3-r7,lr}
        0x0000ce46:    4605        .F      MOV      r5,r0
        0x0000ce48:    f7fff9dc    ....    BL       am_hal_interrupt_master_disable ; 0xc204
        0x0000ce4c:    4c0f        .L      LDR      r4,[pc,#60] ; [0xce8c] = 0x40021000
        0x0000ce4e:    9000        ..      STR      r0,[sp,#0]
        0x0000ce50:    68a0        .h      LDR      r0,[r4,#8]
        0x0000ce52:    4e0f        .N      LDR      r6,[pc,#60] ; [0xce90] = 0xe4dc
        0x0000ce54:    eb050745    ..E.    ADD      r7,r5,r5,LSL #1
        0x0000ce58:    f8561027    V.'.    LDR      r1,[r6,r7,LSL #2]
        0x0000ce5c:    4388        .C      BICS     r0,r0,r1
        0x0000ce5e:    60a0        .`      STR      r0,[r4,#8]
        0x0000ce60:    9800        ..      LDR      r0,[sp,#0]
        0x0000ce62:    f7fff9d3    ....    BL       am_hal_interrupt_master_set ; 0xc20c
        0x0000ce66:    2500        .%      MOVS     r5,#0
        0x0000ce68:    eb060687    ....    ADD      r6,r6,r7,LSL #2
        0x0000ce6c:    20a0        .       MOVS     r0,#0xa0
        0x0000ce6e:    f7fffbaf    ....    BL       am_hal_flash_delay ; 0xc5d0
        0x0000ce72:    69a0        .i      LDR      r0,[r4,#0x18]
        0x0000ce74:    6871        qh      LDR      r1,[r6,#4]
        0x0000ce76:    4208        .B      TST      r0,r1
        0x0000ce78:    d002        ..      BEQ      0xce80 ; am_hal_pwrctrl_periph_disable + 60
        0x0000ce7a:    350a        .5      ADDS     r5,r5,#0xa
        0x0000ce7c:    2d14        .-      CMP      r5,#0x14
        0x0000ce7e:    d3f5        ..      BCC      0xce6c ; am_hal_pwrctrl_periph_disable + 40
        0x0000ce80:    69a0        .i      LDR      r0,[r4,#0x18]
        0x0000ce82:    4008        .@      ANDS     r0,r0,r1
        0x0000ce84:    bf18        ..      IT       NE
        0x0000ce86:    2001        .       MOVNE    r0,#1
        0x0000ce88:    bdf8        ..      POP      {r3-r7,pc}
    $d
        0x0000ce8a:    0000        ..      DCW    0
        0x0000ce8c:    40021000    ...@    DCD    1073876992
        0x0000ce90:    0000e4dc    ....    DCD    58588
    $t
    i.am_hal_pwrctrl_periph_enable
    am_hal_pwrctrl_periph_enable
        0x0000ce94:    b5f8        ..      PUSH     {r3-r7,lr}
        0x0000ce96:    4605        .F      MOV      r5,r0
        0x0000ce98:    f7fff9b4    ....    BL       am_hal_interrupt_master_disable ; 0xc204
        0x0000ce9c:    4c0f        .L      LDR      r4,[pc,#60] ; [0xcedc] = 0x40021000
        0x0000ce9e:    9000        ..      STR      r0,[sp,#0]
        0x0000cea0:    68a0        .h      LDR      r0,[r4,#8]
        0x0000cea2:    4e0f        .N      LDR      r6,[pc,#60] ; [0xcee0] = 0xe4dc
        0x0000cea4:    eb050745    ..E.    ADD      r7,r5,r5,LSL #1
        0x0000cea8:    f8561027    V.'.    LDR      r1,[r6,r7,LSL #2]
        0x0000ceac:    4308        .C      ORRS     r0,r0,r1
        0x0000ceae:    60a0        .`      STR      r0,[r4,#8]
        0x0000ceb0:    9800        ..      LDR      r0,[sp,#0]
        0x0000ceb2:    f7fff9ab    ....    BL       am_hal_interrupt_master_set ; 0xc20c
        0x0000ceb6:    2500        .%      MOVS     r5,#0
        0x0000ceb8:    eb060687    ....    ADD      r6,r6,r7,LSL #2
        0x0000cebc:    20a0        .       MOVS     r0,#0xa0
        0x0000cebe:    f7fffb87    ....    BL       am_hal_flash_delay ; 0xc5d0
        0x0000cec2:    69a0        .i      LDR      r0,[r4,#0x18]
        0x0000cec4:    6871        qh      LDR      r1,[r6,#4]
        0x0000cec6:    4208        .B      TST      r0,r1
        0x0000cec8:    d102        ..      BNE      0xced0 ; am_hal_pwrctrl_periph_enable + 60
        0x0000ceca:    350a        .5      ADDS     r5,r5,#0xa
        0x0000cecc:    2d14        .-      CMP      r5,#0x14
        0x0000cece:    d3f5        ..      BCC      0xcebc ; am_hal_pwrctrl_periph_enable + 40
        0x0000ced0:    69a0        .i      LDR      r0,[r4,#0x18]
        0x0000ced2:    4208        .B      TST      r0,r1
        0x0000ced4:    bf14        ..      ITE      NE
        0x0000ced6:    2000        .       MOVNE    r0,#0
        0x0000ced8:    2001        .       MOVEQ    r0,#1
        0x0000ceda:    bdf8        ..      POP      {r3-r7,pc}
    $d
        0x0000cedc:    40021000    ...@    DCD    1073876992
        0x0000cee0:    0000e4dc    ....    DCD    58588
    $t
    i.am_hal_sysctrl_sleep
    am_hal_sysctrl_sleep
        0x0000cee4:    b538        8.      PUSH     {r3-r5,lr}
        0x0000cee6:    4604        .F      MOV      r4,r0
        0x0000cee8:    f7fff98c    ....    BL       am_hal_interrupt_master_disable ; 0xc204
        0x0000ceec:    4912        .I      LDR      r1,[pc,#72] ; [0xcf38] = 0xe000ed10
        0x0000ceee:    9000        ..      STR      r0,[sp,#0]
        0x0000cef0:    b12c        ,.      CBZ      r4,0xcefe ; am_hal_sysctrl_sleep + 26
        0x0000cef2:    4812        .H      LDR      r0,[pc,#72] ; [0xcf3c] = 0x40020000
        0x0000cef4:    f8d00250    ..P.    LDR      r0,[r0,#0x250]
        0x0000cef8:    f0100f01    ....    TST      r0,#1
        0x0000cefc:    d003        ..      BEQ      0xcf06 ; am_hal_sysctrl_sleep + 34
        0x0000cefe:    6808        .h      LDR      r0,[r1,#0]
        0x0000cf00:    f0200004     ...    BIC      r0,r0,#4
        0x0000cf04:    e008        ..      B        0xcf18 ; am_hal_sysctrl_sleep + 52
        0x0000cf06:    480e        .H      LDR      r0,[pc,#56] ; [0xcf40] = 0x10000094
        0x0000cf08:    6802        .h      LDR      r2,[r0,#0]
        0x0000cf0a:    b912        ..      CBNZ     r2,0xcf12 ; am_hal_sysctrl_sleep + 46
        0x0000cf0c:    4a0d        .J      LDR      r2,[pc,#52] ; [0xcf44] = 0x4ffff000
        0x0000cf0e:    6812        .h      LDR      r2,[r2,#0]
        0x0000cf10:    6002        .`      STR      r2,[r0,#0]
        0x0000cf12:    6808        .h      LDR      r0,[r1,#0]
        0x0000cf14:    f0400004    @...    ORR      r0,r0,#4
        0x0000cf18:    6008        .`      STR      r0,[r1,#0]
        0x0000cf1a:    f3bf8f4f    ..O.    DSB      
        0x0000cf1e:    480a        .H      LDR      r0,[pc,#40] ; [0xcf48] = 0x5fff0000
        0x0000cf20:    490a        .I      LDR      r1,[pc,#40] ; [0xcf4c] = 0x10000090
        0x0000cf22:    6800        .h      LDR      r0,[r0,#0]
        0x0000cf24:    6008        .`      STR      r0,[r1,#0]
        0x0000cf26:    bf30        0.      WFI      
        0x0000cf28:    f3bf8f6f    ..o.    ISB      
        0x0000cf2c:    9800        ..      LDR      r0,[sp,#0]
        0x0000cf2e:    e8bd4038    ..8@    POP      {r3-r5,lr}
        0x0000cf32:    f7ffb96b    ..k.    B        am_hal_interrupt_master_set ; 0xc20c
    $d
        0x0000cf36:    0000        ..      DCW    0
        0x0000cf38:    e000ed10    ....    DCD    3758157072
        0x0000cf3c:    40020000    ...@    DCD    1073872896
        0x0000cf40:    10000094    ....    DCD    268435604
        0x0000cf44:    4ffff000    ...O    DCD    1342173184
        0x0000cf48:    5fff0000    ..._    DCD    1610547200
        0x0000cf4c:    10000090    ....    DCD    268435600
    $t
    i.am_hal_tpiu_enable
    am_hal_tpiu_enable
        0x0000cf50:    e92d41f0    -..A    PUSH     {r4-r8,lr}
        0x0000cf54:    4c1d        .L      LDR      r4,[pc,#116] ; [0xcfcc] = 0xe0040000
        0x0000cf56:    b084        ..      SUB      sp,sp,#0x10
        0x0000cf58:    2600        .&      MOVS     r6,#0
        0x0000cf5a:    6805        .h      LDR      r5,[r0,#0]
        0x0000cf5c:    f8c46304    ...c    STR      r6,[r4,#0x304]
        0x0000cf60:    4f1b        .O      LDR      r7,[pc,#108] ; [0xcfd0] = 0xe0040f00
        0x0000cf62:    f8df8070    ..p.    LDR      r8,[pc,#112] ; [0xcfd4] = 0x40020000
        0x0000cf66:    2101        .!      MOVS     r1,#1
        0x0000cf68:    b31d        ..      CBZ      r5,0xcfb2 ; am_hal_tpiu_enable + 98
        0x0000cf6a:    6061        a`      STR      r1,[r4,#4]
        0x0000cf6c:    491a        .I      LDR      r1,[pc,#104] ; [0xcfd8] = 0x1da381
        0x0000cf6e:    f5a54061    ..a@    SUB      r0,r5,#0xe100
        0x0000cf72:    4288        .B      CMP      r0,r1
        0x0000cf74:    bf28        (.      IT       CS
        0x0000cf76:    4d19        .M      LDRCS    r5,[pc,#100] ; [0xcfdc] = 0xf4240
        0x0000cf78:    4668        hF      MOV      r0,sp
        0x0000cf7a:    f7fffb0f    ....    BL       am_hal_clkgen_status_get ; 0xc59c
        0x0000cf7e:    9800        ..      LDR      r0,[sp,#0]
        0x0000cf80:    f1b03fff    ...?    CMP      r0,#0xffffffff
        0x0000cf84:    bf1d        ..      ITTTE    NE
        0x0000cf86:    08c0        ..      LSRNE    r0,r0,#3
        0x0000cf88:    fbb0f0f5    ....    UDIVNE   r0,r0,r5
        0x0000cf8c:    1e40        @.      SUBNE    r0,r0,#1
        0x0000cf8e:    2005        .       MOVEQ    r0,#5
        0x0000cf90:    b280        ..      UXTH     r0,r0
        0x0000cf92:    6120         a      STR      r0,[r4,#0x10]
        0x0000cf94:    2002        .       MOVS     r0,#2
        0x0000cf96:    f8c400f0    ....    STR      r0,[r4,#0xf0]
        0x0000cf9a:    603e        >`      STR      r6,[r7,#0]
        0x0000cf9c:    f2402001    @..     MOV      r0,#0x201
        0x0000cfa0:    f8c80250    ..P.    STR      r0,[r8,#0x250]
        0x0000cfa4:    f44f7048    O.Hp    MOV      r0,#0x320
        0x0000cfa8:    f7fffb12    ....    BL       am_hal_flash_delay ; 0xc5d0
        0x0000cfac:    b004        ..      ADD      sp,sp,#0x10
        0x0000cfae:    e8bd81f0    ....    POP      {r4-r8,pc}
        0x0000cfb2:    6902        .i      LDR      r2,[r0,#0x10]
        0x0000cfb4:    6122        "a      STR      r2,[r4,#0x10]
        0x0000cfb6:    6882        .h      LDR      r2,[r0,#8]
        0x0000cfb8:    f8c420f0    ...     STR      r2,[r4,#0xf0]
        0x0000cfbc:    7b02        .{      LDRB     r2,[r0,#0xc]
        0x0000cfbe:    1e52        R.      SUBS     r2,r2,#1
        0x0000cfc0:    4091        .@      LSLS     r1,r1,r2
        0x0000cfc2:    6061        a`      STR      r1,[r4,#4]
        0x0000cfc4:    603e        >`      STR      r6,[r7,#0]
        0x0000cfc6:    6840        @h      LDR      r0,[r0,#4]
        0x0000cfc8:    e7ea        ..      B        0xcfa0 ; am_hal_tpiu_enable + 80
    $d
        0x0000cfca:    0000        ..      DCW    0
        0x0000cfcc:    e0040000    ....    DCD    3758358528
        0x0000cfd0:    e0040f00    ....    DCD    3758362368
        0x0000cfd4:    40020000    ...@    DCD    1073872896
        0x0000cfd8:    001da381    ....    DCD    1942401
        0x0000cfdc:    000f4240    @B..    DCD    1000000
    $t
    i.am_pdm0_isr
    am_pdm0_isr
        0x0000cfe0:    b538        8.      PUSH     {r3-r5,lr}
        0x0000cfe2:    4c0a        .L      LDR      r4,[pc,#40] ; [0xd00c] = 0x10000000
        0x0000cfe4:    2201        ."      MOVS     r2,#1
        0x0000cfe6:    4669        iF      MOV      r1,sp
        0x0000cfe8:    68a0        .h      LDR      r0,[r4,#8]
        0x0000cfea:    f7fffecd    ....    BL       am_hal_pdm_interrupt_status_get ; 0xcd88
        0x0000cfee:    9900        ..      LDR      r1,[sp,#0]
        0x0000cff0:    68a0        .h      LDR      r0,[r4,#8]
        0x0000cff2:    f7fffe99    ....    BL       am_hal_pdm_interrupt_clear ; 0xcd28
        0x0000cff6:    9800        ..      LDR      r0,[sp,#0]
        0x0000cff8:    f0100f08    ....    TST      r0,#8
        0x0000cffc:    bf08        ..      IT       EQ
        0x0000cffe:    bd38        8.      POPEQ    {r3-r5,pc}
        0x0000d000:    68a0        .h      LDR      r0,[r4,#8]
        0x0000d002:    f7fffdd9    ....    BL       am_hal_pdm_disable ; 0xcbb8
        0x0000d006:    2001        .       MOVS     r0,#1
        0x0000d008:    7020         p      STRB     r0,[r4,#0]
        0x0000d00a:    bd38        8.      POP      {r3-r5,pc}
    $d
        0x0000d00c:    10000000    ....    DCD    268435456
    $t
    i.am_util_delay_ms
    am_util_delay_ms
        0x0000d010:    b510        ..      PUSH     {r4,lr}
        0x0000d012:    b084        ..      SUB      sp,sp,#0x10
        0x0000d014:    4604        .F      MOV      r4,r0
        0x0000d016:    4668        hF      MOV      r0,sp
        0x0000d018:    f7fffac0    ....    BL       am_hal_clkgen_status_get ; 0xc59c
        0x0000d01c:    9800        ..      LDR      r0,[sp,#0]
        0x0000d01e:    f64031b8    @..1    MOV      r1,#0xbb8
        0x0000d022:    fbb0f0f1    ....    UDIV     r0,r0,r1
        0x0000d026:    4360        `C      MULS     r0,r4,r0
        0x0000d028:    f7fffad2    ....    BL       am_hal_flash_delay ; 0xc5d0
        0x0000d02c:    b004        ..      ADD      sp,sp,#0x10
        0x0000d02e:    bd10        ..      POP      {r4,pc}
    i.am_util_faultisr_collect_data
    am_util_faultisr_collect_data
        0x0000d030:    b092        ..      SUB      sp,sp,#0x48
        0x0000d032:    4604        .F      MOV      r4,r0
        0x0000d034:    2000        .       MOVS     r0,#0
        0x0000d036:    9000        ..      STR      r0,[sp,#0]
        0x0000d038:    9001        ..      STR      r0,[sp,#4]
        0x0000d03a:    9002        ..      STR      r0,[sp,#8]
        0x0000d03c:    9003        ..      STR      r0,[sp,#0xc]
        0x0000d03e:    9004        ..      STR      r0,[sp,#0x10]
        0x0000d040:    9005        ..      STR      r0,[sp,#0x14]
        0x0000d042:    9010        ..      STR      r0,[sp,#0x40]
        0x0000d044:    4864        dH      LDR      r0,[pc,#400] ; [0xd1d8] = 0xe000ed28
        0x0000d046:    6800        .h      LDR      r0,[r0,#0]
        0x0000d048:    9010        ..      STR      r0,[sp,#0x40]
        0x0000d04a:    9810        ..      LDR      r0,[sp,#0x40]
        0x0000d04c:    f88d0044    ..D.    STRB     r0,[sp,#0x44]
        0x0000d050:    9810        ..      LDR      r0,[sp,#0x40]
        0x0000d052:    0a00        ..      LSRS     r0,r0,#8
        0x0000d054:    f88d0045    ..E.    STRB     r0,[sp,#0x45]
        0x0000d058:    9810        ..      LDR      r0,[sp,#0x40]
        0x0000d05a:    0c00        ..      LSRS     r0,r0,#16
        0x0000d05c:    f8ad0046    ..F.    STRH     r0,[sp,#0x46]
        0x0000d060:    485e        ^H      LDR      r0,[pc,#376] ; [0xd1dc] = 0xe000ed38
        0x0000d062:    6800        .h      LDR      r0,[r0,#0]
        0x0000d064:    900f        ..      STR      r0,[sp,#0x3c]
        0x0000d066:    f89d0045    ..E.    LDRB     r0,[sp,#0x45]
        0x0000d06a:    f0100f02    ....    TST      r0,#2
        0x0000d06e:    bf08        ..      IT       EQ
        0x0000d070:    f04f30ff    O..0    MOVEQ    r0,#0xffffffff
        0x0000d074:    d003        ..      BEQ      0xd07e ; am_util_faultisr_collect_data + 78
        0x0000d076:    4621        !F      MOV      r1,r4
        0x0000d078:    2006        .       MOVS     r0,#6
        0x0000d07a:    f7fff8ba    ....    BL       getStackedReg ; 0xc1f2
        0x0000d07e:    900e        ..      STR      r0,[sp,#0x38]
        0x0000d080:    4621        !F      MOV      r1,r4
        0x0000d082:    2000        .       MOVS     r0,#0
        0x0000d084:    f7fff8b5    ....    BL       getStackedReg ; 0xc1f2
        0x0000d088:    9006        ..      STR      r0,[sp,#0x18]
        0x0000d08a:    4621        !F      MOV      r1,r4
        0x0000d08c:    2001        .       MOVS     r0,#1
        0x0000d08e:    f7fff8b0    ....    BL       getStackedReg ; 0xc1f2
        0x0000d092:    9007        ..      STR      r0,[sp,#0x1c]
        0x0000d094:    4621        !F      MOV      r1,r4
        0x0000d096:    2002        .       MOVS     r0,#2
        0x0000d098:    f7fff8ab    ....    BL       getStackedReg ; 0xc1f2
        0x0000d09c:    9008        ..      STR      r0,[sp,#0x20]
        0x0000d09e:    4621        !F      MOV      r1,r4
        0x0000d0a0:    2003        .       MOVS     r0,#3
        0x0000d0a2:    f7fff8a6    ....    BL       getStackedReg ; 0xc1f2
        0x0000d0a6:    9009        ..      STR      r0,[sp,#0x24]
        0x0000d0a8:    4621        !F      MOV      r1,r4
        0x0000d0aa:    2004        .       MOVS     r0,#4
        0x0000d0ac:    f7fff8a1    ....    BL       getStackedReg ; 0xc1f2
        0x0000d0b0:    900a        ..      STR      r0,[sp,#0x28]
        0x0000d0b2:    4621        !F      MOV      r1,r4
        0x0000d0b4:    2005        .       MOVS     r0,#5
        0x0000d0b6:    f7fff89c    ....    BL       getStackedReg ; 0xc1f2
        0x0000d0ba:    900b        ..      STR      r0,[sp,#0x2c]
        0x0000d0bc:    4621        !F      MOV      r1,r4
        0x0000d0be:    2006        .       MOVS     r0,#6
        0x0000d0c0:    f7fff897    ....    BL       getStackedReg ; 0xc1f2
        0x0000d0c4:    900c        ..      STR      r0,[sp,#0x30]
        0x0000d0c6:    4621        !F      MOV      r1,r4
        0x0000d0c8:    2007        .       MOVS     r0,#7
        0x0000d0ca:    f7fff892    ....    BL       getStackedReg ; 0xc1f2
        0x0000d0ce:    900d        ..      STR      r0,[sp,#0x34]
        0x0000d0d0:    4669        iF      MOV      r1,sp
        0x0000d0d2:    2002        .       MOVS     r0,#2
        0x0000d0d4:    f7fffc4a    ..J.    BL       am_hal_mcuctrl_info_get ; 0xc96c
        0x0000d0d8:    a041        A.      ADR      r0,{pc}+0x108 ; 0xd1e0
        0x0000d0da:    f000fa05    ....    BL       am_util_stdio_printf ; 0xd4e8
        0x0000d0de:    9906        ..      LDR      r1,[sp,#0x18]
        0x0000d0e0:    a046        F.      ADR      r0,{pc}+0x11c ; 0xd1fc
        0x0000d0e2:    f000fa01    ....    BL       am_util_stdio_printf ; 0xd4e8
        0x0000d0e6:    9907        ..      LDR      r1,[sp,#0x1c]
        0x0000d0e8:    a049        I.      ADR      r0,{pc}+0x128 ; 0xd210
        0x0000d0ea:    f000f9fd    ....    BL       am_util_stdio_printf ; 0xd4e8
        0x0000d0ee:    9908        ..      LDR      r1,[sp,#0x20]
        0x0000d0f0:    a04c        L.      ADR      r0,{pc}+0x134 ; 0xd224
        0x0000d0f2:    f000f9f9    ....    BL       am_util_stdio_printf ; 0xd4e8
        0x0000d0f6:    9909        ..      LDR      r1,[sp,#0x24]
        0x0000d0f8:    a04f        O.      ADR      r0,{pc}+0x140 ; 0xd238
        0x0000d0fa:    f000f9f5    ....    BL       am_util_stdio_printf ; 0xd4e8
        0x0000d0fe:    990a        ..      LDR      r1,[sp,#0x28]
        0x0000d100:    a052        R.      ADR      r0,{pc}+0x14c ; 0xd24c
        0x0000d102:    f000f9f1    ....    BL       am_util_stdio_printf ; 0xd4e8
        0x0000d106:    990b        ..      LDR      r1,[sp,#0x2c]
        0x0000d108:    a055        U.      ADR      r0,{pc}+0x158 ; 0xd260
        0x0000d10a:    f000f9ed    ....    BL       am_util_stdio_printf ; 0xd4e8
        0x0000d10e:    990c        ..      LDR      r1,[sp,#0x30]
        0x0000d110:    a058        X.      ADR      r0,{pc}+0x164 ; 0xd274
        0x0000d112:    f000f9e9    ....    BL       am_util_stdio_printf ; 0xd4e8
        0x0000d116:    990d        ..      LDR      r1,[sp,#0x34]
        0x0000d118:    a05b        [.      ADR      r0,{pc}+0x170 ; 0xd288
        0x0000d11a:    f000f9e5    ....    BL       am_util_stdio_printf ; 0xd4e8
        0x0000d11e:    a05f        _.      ADR      r0,{pc}+0x17e ; 0xd29c
        0x0000d120:    f000f9e2    ....    BL       am_util_stdio_printf ; 0xd4e8
        0x0000d124:    990e        ..      LDR      r1,[sp,#0x38]
        0x0000d126:    a063        c.      ADR      r0,{pc}+0x18e ; 0xd2b4
        0x0000d128:    f000f9de    ....    BL       am_util_stdio_printf ; 0xd4e8
        0x0000d12c:    990f        ..      LDR      r1,[sp,#0x3c]
        0x0000d12e:    a068        h.      ADR      r0,{pc}+0x1a2 ; 0xd2d0
        0x0000d130:    f000f9da    ....    BL       am_util_stdio_printf ; 0xd4e8
        0x0000d134:    f89d1044    ..D.    LDRB     r1,[sp,#0x44]
        0x0000d138:    a06f        o.      ADR      r0,{pc}+0x1c0 ; 0xd2f8
        0x0000d13a:    f000f9d5    ....    BL       am_util_stdio_printf ; 0xd4e8
        0x0000d13e:    f89d1045    ..E.    LDRB     r1,[sp,#0x45]
        0x0000d142:    a079        y.      ADR      r0,{pc}+0x1e6 ; 0xd328
        0x0000d144:    f000f9d0    ....    BL       am_util_stdio_printf ; 0xd4e8
        0x0000d148:    f8bd1046    ..F.    LDRH     r1,[sp,#0x46]
        0x0000d14c:    a081        ..      ADR      r0,{pc}+0x208 ; 0xd354
        0x0000d14e:    f000f9cb    ....    BL       am_util_stdio_printf ; 0xd4e8
        0x0000d152:    2480        .$      MOVS     r4,#0x80
        0x0000d154:    f89d0045    ..E.    LDRB     r0,[sp,#0x45]
        0x0000d158:    4020         @      ANDS     r0,r0,r4
        0x0000d15a:    2810        .(      CMP      r0,#0x10
        0x0000d15c:    bf08        ..      IT       EQ
        0x0000d15e:    a088        ..      ADREQ    r0,{pc}+0x222 ; 0xd380
        0x0000d160:    d01d        ..      BEQ      0xd19e ; am_util_faultisr_collect_data + 366
        0x0000d162:    dc10        ..      BGT      0xd186 ; am_util_faultisr_collect_data + 342
        0x0000d164:    2801        .(      CMP      r0,#1
        0x0000d166:    bf08        ..      IT       EQ
        0x0000d168:    a08c        ..      ADREQ    r0,{pc}+0x234 ; 0xd39c
        0x0000d16a:    d018        ..      BEQ      0xd19e ; am_util_faultisr_collect_data + 366
        0x0000d16c:    2802        .(      CMP      r0,#2
        0x0000d16e:    bf08        ..      IT       EQ
        0x0000d170:    a091        ..      ADREQ    r0,{pc}+0x248 ; 0xd3b8
        0x0000d172:    d014        ..      BEQ      0xd19e ; am_util_faultisr_collect_data + 366
        0x0000d174:    2804        .(      CMP      r0,#4
        0x0000d176:    bf08        ..      IT       EQ
        0x0000d178:    a097        ..      ADREQ    r0,{pc}+0x260 ; 0xd3d8
        0x0000d17a:    d010        ..      BEQ      0xd19e ; am_util_faultisr_collect_data + 366
        0x0000d17c:    2808        .(      CMP      r0,#8
        0x0000d17e:    bf08        ..      IT       EQ
        0x0000d180:    a09d        ..      ADREQ    r0,{pc}+0x278 ; 0xd3f8
        0x0000d182:    d00c        ..      BEQ      0xd19e ; am_util_faultisr_collect_data + 366
        0x0000d184:    e00d        ..      B        0xd1a2 ; am_util_faultisr_collect_data + 370
        0x0000d186:    2820         (      CMP      r0,#0x20
        0x0000d188:    bf08        ..      IT       EQ
        0x0000d18a:    a0a3        ..      ADREQ    r0,{pc}+0x28e ; 0xd418
        0x0000d18c:    d007        ..      BEQ      0xd19e ; am_util_faultisr_collect_data + 366
        0x0000d18e:    2840        @(      CMP      r0,#0x40
        0x0000d190:    bf08        ..      IT       EQ
        0x0000d192:    a0a8        ..      ADREQ    r0,{pc}+0x2a2 ; 0xd434
        0x0000d194:    d003        ..      BEQ      0xd19e ; am_util_faultisr_collect_data + 366
        0x0000d196:    2880        .(      CMP      r0,#0x80
        0x0000d198:    bf08        ..      IT       EQ
        0x0000d19a:    a0ae        ..      ADREQ    r0,{pc}+0x2ba ; 0xd454
        0x0000d19c:    d101        ..      BNE      0xd1a2 ; am_util_faultisr_collect_data + 370
        0x0000d19e:    f000f9a3    ....    BL       am_util_stdio_printf ; 0xd4e8
        0x0000d1a2:    0864        d.      LSRS     r4,r4,#1
        0x0000d1a4:    d1d6        ..      BNE      0xd154 ; am_util_faultisr_collect_data + 292
        0x0000d1a6:    a0b3        ..      ADR      r0,{pc}+0x2ce ; 0xd474
        0x0000d1a8:    f000f99e    ....    BL       am_util_stdio_printf ; 0xd4e8
        0x0000d1ac:    f89d0000    ....    LDRB     r0,[sp,#0]
        0x0000d1b0:    b118        ..      CBZ      r0,0xd1ba ; am_util_faultisr_collect_data + 394
        0x0000d1b2:    a0b5        ..      ADR      r0,{pc}+0x2d6 ; 0xd488
        0x0000d1b4:    9901        ..      LDR      r1,[sp,#4]
        0x0000d1b6:    f000f997    ....    BL       am_util_stdio_printf ; 0xd4e8
        0x0000d1ba:    f89d0008    ....    LDRB     r0,[sp,#8]
        0x0000d1be:    b118        ..      CBZ      r0,0xd1c8 ; am_util_faultisr_collect_data + 408
        0x0000d1c0:    a0b9        ..      ADR      r0,{pc}+0x2e8 ; 0xd4a8
        0x0000d1c2:    9903        ..      LDR      r1,[sp,#0xc]
        0x0000d1c4:    f000f990    ....    BL       am_util_stdio_printf ; 0xd4e8
        0x0000d1c8:    f89d0010    ....    LDRB     r0,[sp,#0x10]
        0x0000d1cc:    b118        ..      CBZ      r0,0xd1d6 ; am_util_faultisr_collect_data + 422
        0x0000d1ce:    a0be        ..      ADR      r0,{pc}+0x2fa ; 0xd4c8
        0x0000d1d0:    9905        ..      LDR      r1,[sp,#0x14]
        0x0000d1d2:    f000f989    ....    BL       am_util_stdio_printf ; 0xd4e8
        0x0000d1d6:    e7fe        ..      B        0xd1d6 ; am_util_faultisr_collect_data + 422
    $d
        0x0000d1d8:    e000ed28    (...    DCD    3758157096
        0x0000d1dc:    e000ed38    8...    DCD    3758157112
        0x0000d1e0:    64726148    Hard    DCD    1685217608
        0x0000d1e4:    75614620     Fau    DCD    1969309216
        0x0000d1e8:    7320746c    lt s    DCD    1931506796
        0x0000d1ec:    6b636174    tack    DCD    1801675124
        0x0000d1f0:    64206465    ed d    DCD    1679844453
        0x0000d1f4:    3a617461    ata:    DCD    979465313
        0x0000d1f8:    0000000a    ....    DCD    10
        0x0000d1fc:    20202020            DCD    538976288
        0x0000d200:    20203052    R0      DCD    538980434
        0x0000d204:    7830203d    = 0x    DCD    2016419901
        0x0000d208:    58383025    %08X    DCD    1480077349
        0x0000d20c:    0000000a    ....    DCD    10
        0x0000d210:    20202020            DCD    538976288
        0x0000d214:    20203152    R1      DCD    538980690
        0x0000d218:    7830203d    = 0x    DCD    2016419901
        0x0000d21c:    58383025    %08X    DCD    1480077349
        0x0000d220:    0000000a    ....    DCD    10
        0x0000d224:    20202020            DCD    538976288
        0x0000d228:    20203252    R2      DCD    538980946
        0x0000d22c:    7830203d    = 0x    DCD    2016419901
        0x0000d230:    58383025    %08X    DCD    1480077349
        0x0000d234:    0000000a    ....    DCD    10
        0x0000d238:    20202020            DCD    538976288
        0x0000d23c:    20203352    R3      DCD    538981202
        0x0000d240:    7830203d    = 0x    DCD    2016419901
        0x0000d244:    58383025    %08X    DCD    1480077349
        0x0000d248:    0000000a    ....    DCD    10
        0x0000d24c:    20202020            DCD    538976288
        0x0000d250:    20323152    R12     DCD    540160338
        0x0000d254:    7830203d    = 0x    DCD    2016419901
        0x0000d258:    58383025    %08X    DCD    1480077349
        0x0000d25c:    0000000a    ....    DCD    10
        0x0000d260:    20202020            DCD    538976288
        0x0000d264:    2020524c    LR      DCD    538989132
        0x0000d268:    7830203d    = 0x    DCD    2016419901
        0x0000d26c:    58383025    %08X    DCD    1480077349
        0x0000d270:    0000000a    ....    DCD    10
        0x0000d274:    20202020            DCD    538976288
        0x0000d278:    20204350    PC      DCD    538985296
        0x0000d27c:    7830203d    = 0x    DCD    2016419901
        0x0000d280:    58383025    %08X    DCD    1480077349
        0x0000d284:    0000000a    ....    DCD    10
        0x0000d288:    20202020            DCD    538976288
        0x0000d28c:    20525350    PSR     DCD    542266192
        0x0000d290:    7830203d    = 0x    DCD    2016419901
        0x0000d294:    58383025    %08X    DCD    1480077349
        0x0000d298:    0000000a    ....    DCD    10
        0x0000d29c:    6568744f    Othe    DCD    1701344335
        0x0000d2a0:    61482072    r Ha    DCD    1632116850
        0x0000d2a4:    46206472    rd F    DCD    1176527986
        0x0000d2a8:    746c7561    ault    DCD    1953264993
        0x0000d2ac:    74616420     dat    DCD    1952539680
        0x0000d2b0:    000a3a61    a:..    DCD    670305
        0x0000d2b4:    20202020            DCD    538976288
        0x0000d2b8:    6c756146    Faul    DCD    1819631942
        0x0000d2bc:    64612074    t ad    DCD    1684086900
        0x0000d2c0:    73657264    dres    DCD    1936028260
        0x0000d2c4:    203d2073    s =     DCD    540876915
        0x0000d2c8:    30257830    0x%0    DCD    807761968
        0x0000d2cc:    000a5838    8X..    DCD    677944
        0x0000d2d0:    20202020            DCD    538976288
        0x0000d2d4:    52414642    BFAR    DCD    1380009538
        0x0000d2d8:    75422820     (Bu    DCD    1967269920
        0x0000d2dc:    61462073    s Fa    DCD    1631985779
        0x0000d2e0:    20746c75    ult     DCD    544500853
        0x0000d2e4:    72646441    Addr    DCD    1919181889
        0x0000d2e8:    67655220     Reg    DCD    1734693408
        0x0000d2ec:    203d2029    ) =     DCD    540876841
        0x0000d2f0:    30257830    0x%0    DCD    807761968
        0x0000d2f4:    000a5838    8X..    DCD    677944
        0x0000d2f8:    20202020            DCD    538976288
        0x0000d2fc:    52534d4d    MMSR    DCD    1381190989
        0x0000d300:    654d2820     (Me    DCD    1699555360
        0x0000d304:    674d206d    m Mg    DCD    1733107821
        0x0000d308:    4620746d    mt F    DCD    1176532077
        0x0000d30c:    746c7561    ault    DCD    1953264993
        0x0000d310:    61745320     Sta    DCD    1635013408
        0x0000d314:    20737574    tus     DCD    544437620
        0x0000d318:    29676552    Reg)    DCD    694642002
        0x0000d31c:    30203d20     = 0    DCD    807419168
        0x0000d320:    32302578    x%02    DCD    842016120
        0x0000d324:    00000a58    X...    DCD    2648
        0x0000d328:    20202020            DCD    538976288
        0x0000d32c:    52534642    BFSR    DCD    1381189186
        0x0000d330:    75422820     (Bu    DCD    1967269920
        0x0000d334:    61462073    s Fa    DCD    1631985779
        0x0000d338:    20746c75    ult     DCD    544500853
        0x0000d33c:    74617453    Stat    DCD    1952543827
        0x0000d340:    52207375    us R    DCD    1377858421
        0x0000d344:    20296765    eg)     DCD    539584357
        0x0000d348:    7830203d    = 0x    DCD    2016419901
        0x0000d34c:    58323025    %02X    DCD    1479684133
        0x0000d350:    0000000a    ....    DCD    10
        0x0000d354:    20202020            DCD    538976288
        0x0000d358:    52534655    UFSR    DCD    1381189205
        0x0000d35c:    73552820     (Us    DCD    1934960672
        0x0000d360:    20656761    age     DCD    543516513
        0x0000d364:    6c756146    Faul    DCD    1819631942
        0x0000d368:    74532074    t St    DCD    1951604852
        0x0000d36c:    73757461    atus    DCD    1937077345
        0x0000d370:    67655220     Reg    DCD    1734693408
        0x0000d374:    203d2029    ) =     DCD    540876841
        0x0000d378:    30257830    0x%0    DCD    807761968
        0x0000d37c:    000a5834    4X..    DCD    677940
        0x0000d380:    20202020            DCD    538976288
        0x0000d384:    20202020            DCD    538976288
        0x0000d388:    52534642    BFSR    DCD    1381189186
        0x0000d38c:    74696220     bit    DCD    1953063456
        0x0000d390:    53203a34    4: S    DCD    1394620980
        0x0000d394:    52454b54    TKER    DCD    1380272980
        0x0000d398:    00000a52    R...    DCD    2642
        0x0000d39c:    20202020            DCD    538976288
        0x0000d3a0:    20202020            DCD    538976288
        0x0000d3a4:    52534642    BFSR    DCD    1381189186
        0x0000d3a8:    74696220     bit    DCD    1953063456
        0x0000d3ac:    49203a30    0: I    DCD    1226848816
        0x0000d3b0:    45535542    BUSE    DCD    1163089218
        0x0000d3b4:    000a5252    RR..    DCD    676434
        0x0000d3b8:    20202020            DCD    538976288
        0x0000d3bc:    20202020            DCD    538976288
        0x0000d3c0:    52534642    BFSR    DCD    1381189186
        0x0000d3c4:    74696220     bit    DCD    1953063456
        0x0000d3c8:    50203a31    1: P    DCD    1344289329
        0x0000d3cc:    49434552    RECI    DCD    1229145426
        0x0000d3d0:    52454553    SEER    DCD    1380271443
        0x0000d3d4:    00000a52    R...    DCD    2642
        0x0000d3d8:    20202020            DCD    538976288
        0x0000d3dc:    20202020            DCD    538976288
        0x0000d3e0:    52534642    BFSR    DCD    1381189186
        0x0000d3e4:    74696220     bit    DCD    1953063456
        0x0000d3e8:    49203a32    2: I    DCD    1226848818
        0x0000d3ec:    4552504d    MPRE    DCD    1163022413
        0x0000d3f0:    45534943    CISE    DCD    1163086147
        0x0000d3f4:    000a5252    RR..    DCD    676434
        0x0000d3f8:    20202020            DCD    538976288
        0x0000d3fc:    20202020            DCD    538976288
        0x0000d400:    52534642    BFSR    DCD    1381189186
        0x0000d404:    74696220     bit    DCD    1953063456
        0x0000d408:    55203a33    3: U    DCD    1428175411
        0x0000d40c:    4b54534e    NSTK    DCD    1263817550
        0x0000d410:    0a525245    ERR.    DCD    173167173
        0x0000d414:    00000000    ....    DCD    0
        0x0000d418:    20202020            DCD    538976288
        0x0000d41c:    20202020            DCD    538976288
        0x0000d420:    52534642    BFSR    DCD    1381189186
        0x0000d424:    74696220     bit    DCD    1953063456
        0x0000d428:    4c203a35    5: L    DCD    1277180469
        0x0000d42c:    52455053    SPER    DCD    1380274259
        0x0000d430:    00000a52    R...    DCD    2642
        0x0000d434:    20202020            DCD    538976288
        0x0000d438:    20202020            DCD    538976288
        0x0000d43c:    52534642    BFSR    DCD    1381189186
        0x0000d440:    74696220     bit    DCD    1953063456
        0x0000d444:    52203a36    6: R    DCD    1377843766
        0x0000d448:    52455345    ESER    DCD    1380275013
        0x0000d44c:    0a444556    VED.    DCD    172246358
        0x0000d450:    00000000    ....    DCD    0
        0x0000d454:    20202020            DCD    538976288
        0x0000d458:    20202020            DCD    538976288
        0x0000d45c:    52534642    BFSR    DCD    1381189186
        0x0000d460:    74696220     bit    DCD    1953063456
        0x0000d464:    42203a37    7: B    DCD    1109408311
        0x0000d468:    56524146    FARV    DCD    1448231238
        0x0000d46c:    44494c41    ALID    DCD    1145654337
        0x0000d470:    0000000a    ....    DCD    10
        0x0000d474:    2055434d    MCU     DCD    542458701
        0x0000d478:    6c756146    Faul    DCD    1819631942
        0x0000d47c:    61642074    t da    DCD    1633951860
        0x0000d480:    0a3a6174    ta:.    DCD    171598196
        0x0000d484:    00000000    ....    DCD    0
        0x0000d488:    49202020       I    DCD    1226842144
        0x0000d48c:    45444f43    CODE    DCD    1162104643
        0x0000d490:    75614620     Fau    DCD    1969309216
        0x0000d494:    4120746c    lt A    DCD    1092645996
        0x0000d498:    65726464    ddre    DCD    1701995620
        0x0000d49c:    203a7373    ss:     DCD    540701555
        0x0000d4a0:    30257830    0x%0    DCD    807761968
        0x0000d4a4:    000a5838    8X..    DCD    677944
        0x0000d4a8:    44202020       D    DCD    1142956064
        0x0000d4ac:    45444f43    CODE    DCD    1162104643
        0x0000d4b0:    75614620     Fau    DCD    1969309216
        0x0000d4b4:    4120746c    lt A    DCD    1092645996
        0x0000d4b8:    65726464    ddre    DCD    1701995620
        0x0000d4bc:    203a7373    ss:     DCD    540701555
        0x0000d4c0:    30257830    0x%0    DCD    807761968
        0x0000d4c4:    000a5838    8X..    DCD    677944
        0x0000d4c8:    53202020       S    DCD    1394614304
        0x0000d4cc:    46205359    YS F    DCD    1176523609
        0x0000d4d0:    746c7561    ault    DCD    1953264993
        0x0000d4d4:    64644120     Add    DCD    1684291872
        0x0000d4d8:    73736572    ress    DCD    1936942450
        0x0000d4dc:    7830203a    : 0x    DCD    2016419898
        0x0000d4e0:    58383025    %08X    DCD    1480077349
        0x0000d4e4:    0000000a    ....    DCD    10
    $t
    i.am_util_stdio_printf
    am_util_stdio_printf
        0x0000d4e8:    b40f        ..      PUSH     {r0-r3}
        0x0000d4ea:    b570        p.      PUSH     {r4-r6,lr}
        0x0000d4ec:    4c09        .L      LDR      r4,[pc,#36] ; [0xd514] = 0x1000002c
        0x0000d4ee:    6860        `h      LDR      r0,[r4,#4]
        0x0000d4f0:    2800        .(      CMP      r0,#0
        0x0000d4f2:    bf04        ..      ITT      EQ
        0x0000d4f4:    bc70        p.      POPEQ    {r4-r6}
        0x0000d4f6:    f85dfb14    ]...    LDREQ    pc,[sp],#0x14
        0x0000d4fa:    aa05        ..      ADD      r2,sp,#0x14
        0x0000d4fc:    4806        .H      LDR      r0,[pc,#24] ; [0xd518] = 0x10008d98
        0x0000d4fe:    9904        ..      LDR      r1,[sp,#0x10]
        0x0000d500:    f000f830    ..0.    BL       am_util_stdio_vsprintf ; 0xd564
        0x0000d504:    4605        .F      MOV      r5,r0
        0x0000d506:    6861        ah      LDR      r1,[r4,#4]
        0x0000d508:    4803        .H      LDR      r0,[pc,#12] ; [0xd518] = 0x10008d98
        0x0000d50a:    4788        .G      BLX      r1
        0x0000d50c:    4628        (F      MOV      r0,r5
        0x0000d50e:    bc70        p.      POP      {r4-r6}
        0x0000d510:    f85dfb14    ]...    LDR      pc,[sp],#0x14
    $d
        0x0000d514:    1000002c    ,...    DCD    268435500
        0x0000d518:    10008d98    ....    DCD    268471704
    $t
    i.am_util_stdio_printf_init
    am_util_stdio_printf_init
        0x0000d51c:    4901        .I      LDR      r1,[pc,#4] ; [0xd524] = 0x1000002c
        0x0000d51e:    6048        H`      STR      r0,[r1,#4]
        0x0000d520:    4770        pG      BX       lr
    $d
        0x0000d522:    0000        ..      DCW    0
        0x0000d524:    1000002c    ,...    DCD    268435500
    $t
    i.am_util_stdio_terminal_clear
    am_util_stdio_terminal_clear
        0x0000d528:    b538        8.      PUSH     {r3-r5,lr}
        0x0000d52a:    4c0c        .L      LDR      r4,[pc,#48] ; [0xd55c] = 0x1000002c
        0x0000d52c:    a106        ..      ADR      r1,{pc}+0x1c ; 0xd548
        0x0000d52e:    9100        ..      STR      r1,[sp,#0]
        0x0000d530:    6860        `h      LDR      r0,[r4,#4]
        0x0000d532:    2800        .(      CMP      r0,#0
        0x0000d534:    bf08        ..      IT       EQ
        0x0000d536:    bd38        8.      POPEQ    {r3-r5,pc}
        0x0000d538:    aa01        ..      ADD      r2,sp,#4
        0x0000d53a:    4809        .H      LDR      r0,[pc,#36] ; [0xd560] = 0x10008d98
        0x0000d53c:    f000f812    ....    BL       am_util_stdio_vsprintf ; 0xd564
        0x0000d540:    6861        ah      LDR      r1,[r4,#4]
        0x0000d542:    4807        .H      LDR      r0,[pc,#28] ; [0xd560] = 0x10008d98
        0x0000d544:    4788        .G      BLX      r1
        0x0000d546:    bd38        8.      POP      {r3-r5,pc}
    $d
        0x0000d548:    0a0a0a0a    ....    DCD    168430090
        0x0000d54c:    0a0a0a0a    ....    DCD    168430090
        0x0000d550:    0a0a0a0a    ....    DCD    168430090
        0x0000d554:    0a0a0a0a    ....    DCD    168430090
        0x0000d558:    00000a0a    ....    DCD    2570
        0x0000d55c:    1000002c    ,...    DCD    268435500
        0x0000d560:    10008d98    ....    DCD    268471704
    $t
    i.am_util_stdio_vsprintf
    am_util_stdio_vsprintf
        0x0000d564:    e92d4ff7    -..O    PUSH     {r0-r2,r4-r11,lr}
        0x0000d568:    4604        .F      MOV      r4,r0
        0x0000d56a:    7808        .x      LDRB     r0,[r1,#0]
        0x0000d56c:    2500        .%      MOVS     r5,#0
        0x0000d56e:    b088        ..      SUB      sp,sp,#0x20
        0x0000d570:    2800        .(      CMP      r0,#0
        0x0000d572:    f0008385    ....    BEQ.W    0xdc80 ; am_util_stdio_vsprintf + 1820
        0x0000d576:    bf00        ..      NOP      
        0x0000d578:    b2c0        ..      UXTB     r0,r0
        0x0000d57a:    f04f0906    O...    MOV      r9,#6
        0x0000d57e:    2825        %(      CMP      r0,#0x25
        0x0000d580:    d010        ..      BEQ      0xd5a4 ; am_util_stdio_vsprintf + 64
        0x0000d582:    b15c        \.      CBZ      r4,0xd59c ; am_util_stdio_vsprintf + 56
        0x0000d584:    280a        .(      CMP      r0,#0xa
        0x0000d586:    d106        ..      BNE      0xd596 ; am_util_stdio_vsprintf + 50
        0x0000d588:    48fe        .H      LDR      r0,[pc,#1016] ; [0xd984] = 0x1000002c
        0x0000d58a:    7800        .x      LDRB     r0,[r0,#0]
        0x0000d58c:    b118        ..      CBZ      r0,0xd596 ; am_util_stdio_vsprintf + 50
        0x0000d58e:    200d        .       MOVS     r0,#0xd
        0x0000d590:    f8040b01    ....    STRB     r0,[r4],#1
        0x0000d594:    1c6d        m.      ADDS     r5,r5,#1
        0x0000d596:    7808        .x      LDRB     r0,[r1,#0]
        0x0000d598:    f8040b01    ....    STRB     r0,[r4],#1
        0x0000d59c:    1c49        I.      ADDS     r1,r1,#1
        0x0000d59e:    1c6d        m.      ADDS     r5,r5,#1
        0x0000d5a0:    f000bb6a    ..j.    B.W      0xdc78 ; am_util_stdio_vsprintf + 1812
        0x0000d5a4:    2020                MOVS     r0,#0x20
        0x0000d5a6:    9001        ..      STR      r0,[sp,#4]
        0x0000d5a8:    2700        .'      MOVS     r7,#0
        0x0000d5aa:    f8110f01    ....    LDRB     r0,[r1,#1]!
        0x0000d5ae:    46bc        .F      MOV      r12,r7
        0x0000d5b0:    2830        0(      CMP      r0,#0x30
        0x0000d5b2:    d101        ..      BNE      0xd5b8 ; am_util_stdio_vsprintf + 84
        0x0000d5b4:    1c49        I.      ADDS     r1,r1,#1
        0x0000d5b6:    9001        ..      STR      r0,[sp,#4]
        0x0000d5b8:    2600        .&      MOVS     r6,#0
        0x0000d5ba:    f891a000    ....    LDRB     r10,[r1,#0]
        0x0000d5be:    460a        .F      MOV      r2,r1
        0x0000d5c0:    f10d0808    ....    ADD      r8,sp,#8
        0x0000d5c4:    4630        0F      MOV      r0,r6
        0x0000d5c6:    4633        3F      MOV      r3,r6
        0x0000d5c8:    f1ba0f2d    ..-.    CMP      r10,#0x2d
        0x0000d5cc:    d102        ..      BNE      0xd5d4 ; am_util_stdio_vsprintf + 112
        0x0000d5ce:    2601        .&      MOVS     r6,#1
        0x0000d5d0:    1c4a        J.      ADDS     r2,r1,#1
        0x0000d5d2:    4633        3F      MOV      r3,r6
        0x0000d5d4:    f892a000    ....    LDRB     r10,[r2,#0]
        0x0000d5d8:    f1aa0a30    ..0.    SUB      r10,r10,#0x30
        0x0000d5dc:    f1ba0f09    ....    CMP      r10,#9
        0x0000d5e0:    d80f        ..      BHI      0xd602 ; am_util_stdio_vsprintf + 158
        0x0000d5e2:    bf00        ..      NOP      
        0x0000d5e4:    eb000080    ....    ADD      r0,r0,r0,LSL #2
        0x0000d5e8:    0040        @.      LSLS     r0,r0,#1
        0x0000d5ea:    f812ab01    ....    LDRB     r10,[r2],#1
        0x0000d5ee:    3830        08      SUBS     r0,r0,#0x30
        0x0000d5f0:    4450        PD      ADD      r0,r0,r10
        0x0000d5f2:    f892a000    ....    LDRB     r10,[r2,#0]
        0x0000d5f6:    1c5b        [.      ADDS     r3,r3,#1
        0x0000d5f8:    f1aa0a30    ..0.    SUB      r10,r10,#0x30
        0x0000d5fc:    f1ba0f09    ....    CMP      r10,#9
        0x0000d600:    d9f0        ..      BLS      0xd5e4 ; am_util_stdio_vsprintf + 128
        0x0000d602:    f1b80f00    ....    CMP      r8,#0
        0x0000d606:    bf18        ..      IT       NE
        0x0000d608:    9302        ..      STRNE    r3,[sp,#8]
        0x0000d60a:    2e00        ..      CMP      r6,#0
        0x0000d60c:    bf18        ..      IT       NE
        0x0000d60e:    4240        @B      RSBNE    r0,r0,#0
        0x0000d610:    9000        ..      STR      r0,[sp,#0]
        0x0000d612:    9802        ..      LDR      r0,[sp,#8]
        0x0000d614:    180e        ..      ADDS     r6,r1,r0
        0x0000d616:    7830        0x      LDRB     r0,[r6,#0]
        0x0000d618:    2873        s(      CMP      r0,#0x73
        0x0000d61a:    d037        7.      BEQ      0xd68c ; am_util_stdio_vsprintf + 296
        0x0000d61c:    9900        ..      LDR      r1,[sp,#0]
        0x0000d61e:    2900        .)      CMP      r1,#0
        0x0000d620:    bfbc        ..      ITT      LT
        0x0000d622:    4249        IB      RSBLT    r1,r1,#0
        0x0000d624:    9100        ..      STRLT    r1,[sp,#0]
        0x0000d626:    282e        .(      CMP      r0,#0x2e
        0x0000d628:    d003        ..      BEQ      0xd632 ; am_util_stdio_vsprintf + 206
        0x0000d62a:    7830        0x      LDRB     r0,[r6,#0]
        0x0000d62c:    286c        l(      CMP      r0,#0x6c
        0x0000d62e:    d12d        -.      BNE      0xd68c ; am_util_stdio_vsprintf + 296
        0x0000d630:    e025        %.      B        0xd67e ; am_util_stdio_vsprintf + 282
        0x0000d632:    1c72        r.      ADDS     r2,r6,#1
        0x0000d634:    2300        .#      MOVS     r3,#0
        0x0000d636:    7811        .x      LDRB     r1,[r2,#0]
        0x0000d638:    4616        .F      MOV      r6,r2
        0x0000d63a:    4699        .F      MOV      r9,r3
        0x0000d63c:    4618        .F      MOV      r0,r3
        0x0000d63e:    292d        -)      CMP      r1,#0x2d
        0x0000d640:    d102        ..      BNE      0xd648 ; am_util_stdio_vsprintf + 228
        0x0000d642:    2301        .#      MOVS     r3,#1
        0x0000d644:    1c56        V.      ADDS     r6,r2,#1
        0x0000d646:    4618        .F      MOV      r0,r3
        0x0000d648:    7831        1x      LDRB     r1,[r6,#0]
        0x0000d64a:    3930        09      SUBS     r1,r1,#0x30
        0x0000d64c:    2909        .)      CMP      r1,#9
        0x0000d64e:    d80b        ..      BHI      0xd668 ; am_util_stdio_vsprintf + 260
        0x0000d650:    eb090189    ....    ADD      r1,r9,r9,LSL #2
        0x0000d654:    0049        I.      LSLS     r1,r1,#1
        0x0000d656:    f8169b01    ....    LDRB     r9,[r6],#1
        0x0000d65a:    3930        09      SUBS     r1,r1,#0x30
        0x0000d65c:    4489        .D      ADD      r9,r9,r1
        0x0000d65e:    7831        1x      LDRB     r1,[r6,#0]
        0x0000d660:    1c40        @.      ADDS     r0,r0,#1
        0x0000d662:    3930        09      SUBS     r1,r1,#0x30
        0x0000d664:    2909        .)      CMP      r1,#9
        0x0000d666:    d9f3        ..      BLS      0xd650 ; am_util_stdio_vsprintf + 236
        0x0000d668:    f1b80f00    ....    CMP      r8,#0
        0x0000d66c:    bf18        ..      IT       NE
        0x0000d66e:    9002        ..      STRNE    r0,[sp,#8]
        0x0000d670:    2b00        .+      CMP      r3,#0
        0x0000d672:    bf18        ..      IT       NE
        0x0000d674:    f1c90900    ....    RSBNE    r9,r9,#0
        0x0000d678:    9802        ..      LDR      r0,[sp,#8]
        0x0000d67a:    1816        ..      ADDS     r6,r2,r0
        0x0000d67c:    e7d5        ..      B        0xd62a ; am_util_stdio_vsprintf + 198
        0x0000d67e:    f8160f01    ....    LDRB     r0,[r6,#1]!
        0x0000d682:    286c        l(      CMP      r0,#0x6c
        0x0000d684:    bf04        ..      ITT      EQ
        0x0000d686:    f04f0c01    O...    MOVEQ    r12,#1
        0x0000d68a:    1c76        v.      ADDEQ    r6,r6,#1
        0x0000d68c:    7830        0x      LDRB     r0,[r6,#0]
        0x0000d68e:    2866        f(      CMP      r0,#0x66
        0x0000d690:    f000822a    ..*.    BEQ.W    0xdae8 ; am_util_stdio_vsprintf + 1412
        0x0000d694:    dc0a        ..      BGT      0xd6ac ; am_util_stdio_vsprintf + 328
        0x0000d696:    2846        F(      CMP      r0,#0x46
        0x0000d698:    f0008226    ..&.    BEQ.W    0xdae8 ; am_util_stdio_vsprintf + 1412
        0x0000d69c:    2858        X(      CMP      r0,#0x58
        0x0000d69e:    d07d        }.      BEQ      0xd79c ; am_util_stdio_vsprintf + 568
        0x0000d6a0:    2863        c(      CMP      r0,#0x63
        0x0000d6a2:    d014        ..      BEQ      0xd6ce ; am_util_stdio_vsprintf + 362
        0x0000d6a4:    2864        d(      CMP      r0,#0x64
        0x0000d6a6:    f00081b5    ....    BEQ.W    0xda14 ; am_util_stdio_vsprintf + 1200
        0x0000d6aa:    e00b        ..      B        0xd6c4 ; am_util_stdio_vsprintf + 352
        0x0000d6ac:    2869        i(      CMP      r0,#0x69
        0x0000d6ae:    f00081b1    ....    BEQ.W    0xda14 ; am_util_stdio_vsprintf + 1200
        0x0000d6b2:    2873        s(      CMP      r0,#0x73
        0x0000d6b4:    d016        ..      BEQ      0xd6e4 ; am_util_stdio_vsprintf + 384
        0x0000d6b6:    2875        u(      CMP      r0,#0x75
        0x0000d6b8:    f000810c    ....    BEQ.W    0xd8d4 ; am_util_stdio_vsprintf + 880
        0x0000d6bc:    2878        x(      CMP      r0,#0x78
        0x0000d6be:    bf08        ..      IT       EQ
        0x0000d6c0:    2701        .'      MOVEQ    r7,#1
        0x0000d6c2:    d06e        n.      BEQ      0xd7a2 ; am_util_stdio_vsprintf + 574
        0x0000d6c4:    2c00        .,      CMP      r4,#0
        0x0000d6c6:    bf18        ..      IT       NE
        0x0000d6c8:    f8040b01    ....    STRBNE   r0,[r4],#1
        0x0000d6cc:    e007        ..      B        0xd6de ; am_util_stdio_vsprintf + 378
        0x0000d6ce:    980a        ..      LDR      r0,[sp,#0x28]
        0x0000d6d0:    2c00        .,      CMP      r4,#0
        0x0000d6d2:    f8101b04    ....    LDRB     r1,[r0],#4
        0x0000d6d6:    900a        ..      STR      r0,[sp,#0x28]
        0x0000d6d8:    bf18        ..      IT       NE
        0x0000d6da:    f8041b01    ....    STRBNE   r1,[r4],#1
        0x0000d6de:    1c6d        m.      ADDS     r5,r5,#1
        0x0000d6e0:    f000bac9    ....    B.W      0xdc76 ; am_util_stdio_vsprintf + 1810
        0x0000d6e4:    990a        ..      LDR      r1,[sp,#0x28]
        0x0000d6e6:    2200        ."      MOVS     r2,#0
        0x0000d6e8:    f8510b04    Q...    LDR      r0,[r1],#4
        0x0000d6ec:    910a        ..      STR      r1,[sp,#0x28]
        0x0000d6ee:    b140        @.      CBZ      r0,0xd702 ; am_util_stdio_vsprintf + 414
        0x0000d6f0:    7803        .x      LDRB     r3,[r0,#0]
        0x0000d6f2:    1c41        A.      ADDS     r1,r0,#1
        0x0000d6f4:    b12b        +.      CBZ      r3,0xd702 ; am_util_stdio_vsprintf + 414
        0x0000d6f6:    bf00        ..      NOP      
        0x0000d6f8:    f8113b01    ...;    LDRB     r3,[r1],#1
        0x0000d6fc:    1c52        R.      ADDS     r2,r2,#1
        0x0000d6fe:    2b00        .+      CMP      r3,#0
        0x0000d700:    d1fa        ..      BNE      0xd6f8 ; am_util_stdio_vsprintf + 404
        0x0000d702:    9900        ..      LDR      r1,[sp,#0]
        0x0000d704:    2900        .)      CMP      r1,#0
        0x0000d706:    dd1e        ..      BLE      0xd746 ; am_util_stdio_vsprintf + 482
        0x0000d708:    428a        .B      CMP      r2,r1
        0x0000d70a:    d21c        ..      BCS      0xd746 ; am_util_stdio_vsprintf + 482
        0x0000d70c:    1a8b        ..      SUBS     r3,r1,r2
        0x0000d70e:    9f01        ..      LDR      r7,[sp,#4]
        0x0000d710:    4621        !F      MOV      r1,r4
        0x0000d712:    f04f0c00    O...    MOV      r12,#0
        0x0000d716:    2b00        .+      CMP      r3,#0
        0x0000d718:    bfc4        ..      ITT      GT
        0x0000d71a:    1e5b        [.      SUBGT    r3,r3,#1
        0x0000d71c:    f1b33fff    ...?    CMPGT    r3,#0xffffffff
        0x0000d720:    dd09        ..      BLE      0xd736 ; am_util_stdio_vsprintf + 466
        0x0000d722:    2900        .)      CMP      r1,#0
        0x0000d724:    bf18        ..      IT       NE
        0x0000d726:    f8017b01    ...{    STRBNE   r7,[r1],#1
        0x0000d72a:    1e5b        [.      SUBS     r3,r3,#1
        0x0000d72c:    f10c0c01    ....    ADD      r12,r12,#1
        0x0000d730:    f1b33fff    ...?    CMP      r3,#0xffffffff
        0x0000d734:    dcf5        ..      BGT      0xd722 ; am_util_stdio_vsprintf + 446
        0x0000d736:    2c00        .,      CMP      r4,#0
        0x0000d738:    bf14        ..      ITE      NE
        0x0000d73a:    4661        aF      MOVNE    r1,r12
        0x0000d73c:    2100        .!      MOVEQ    r1,#0
        0x0000d73e:    440c        .D      ADD      r4,r4,r1
        0x0000d740:    2100        .!      MOVS     r1,#0
        0x0000d742:    4465        eD      ADD      r5,r5,r12
        0x0000d744:    9100        ..      STR      r1,[sp,#0]
        0x0000d746:    7801        .x      LDRB     r1,[r0,#0]
        0x0000d748:    b139        9.      CBZ      r1,0xd75a ; am_util_stdio_vsprintf + 502
        0x0000d74a:    b10c        ..      CBZ      r4,0xd750 ; am_util_stdio_vsprintf + 492
        0x0000d74c:    f8041b01    ....    STRB     r1,[r4],#1
        0x0000d750:    f8101f01    ....    LDRB     r1,[r0,#1]!
        0x0000d754:    1c6d        m.      ADDS     r5,r5,#1
        0x0000d756:    2900        .)      CMP      r1,#0
        0x0000d758:    d1f7        ..      BNE      0xd74a ; am_util_stdio_vsprintf + 486
        0x0000d75a:    9800        ..      LDR      r0,[sp,#0]
        0x0000d75c:    2800        .(      CMP      r0,#0
        0x0000d75e:    bf1c        ..      ITT      NE
        0x0000d760:    4240        @B      RSBNE    r0,r0,#0
        0x0000d762:    4282        .B      CMPNE    r2,r0
        0x0000d764:    f0808287    ....    BCS.W    0xdc76 ; am_util_stdio_vsprintf + 1810
        0x0000d768:    1a82        ..      SUBS     r2,r0,r2
        0x0000d76a:    2000        .       MOVS     r0,#0
        0x0000d76c:    9b01        ..      LDR      r3,[sp,#4]
        0x0000d76e:    4621        !F      MOV      r1,r4
        0x0000d770:    2a00        .*      CMP      r2,#0
        0x0000d772:    bfc4        ..      ITT      GT
        0x0000d774:    1e52        R.      SUBGT    r2,r2,#1
        0x0000d776:    f1b23fff    ...?    CMPGT    r2,#0xffffffff
        0x0000d77a:    dd08        ..      BLE      0xd78e ; am_util_stdio_vsprintf + 554
        0x0000d77c:    2900        .)      CMP      r1,#0
        0x0000d77e:    bf18        ..      IT       NE
        0x0000d780:    f8013b01    ...;    STRBNE   r3,[r1],#1
        0x0000d784:    1c40        @.      ADDS     r0,r0,#1
        0x0000d786:    1e52        R.      SUBS     r2,r2,#1
        0x0000d788:    f1b23fff    ...?    CMP      r2,#0xffffffff
        0x0000d78c:    dcf6        ..      BGT      0xd77c ; am_util_stdio_vsprintf + 536
        0x0000d78e:    2c00        .,      CMP      r4,#0
        0x0000d790:    bf14        ..      ITE      NE
        0x0000d792:    4601        .F      MOVNE    r1,r0
        0x0000d794:    2100        .!      MOVEQ    r1,#0
        0x0000d796:    440c        .D      ADD      r4,r4,r1
        0x0000d798:    4405        .D      ADD      r5,r5,r0
        0x0000d79a:    e000        ..      B        0xd79e ; am_util_stdio_vsprintf + 570
        0x0000d79c:    e001        ..      B        0xd7a2 ; am_util_stdio_vsprintf + 574
        0x0000d79e:    f000ba6a    ..j.    B.W      0xdc76 ; am_util_stdio_vsprintf + 1810
        0x0000d7a2:    f1bc0f00    ....    CMP      r12,#0
        0x0000d7a6:    d007        ..      BEQ      0xd7b8 ; am_util_stdio_vsprintf + 596
        0x0000d7a8:    980a        ..      LDR      r0,[sp,#0x28]
        0x0000d7aa:    1dc0        ..      ADDS     r0,r0,#7
        0x0000d7ac:    f0200207     ...    BIC      r2,r0,#7
        0x0000d7b0:    e8f20102    ....    LDRD     r0,r1,[r2],#8
        0x0000d7b4:    920a        ..      STR      r2,[sp,#0x28]
        0x0000d7b6:    e004        ..      B        0xd7c2 ; am_util_stdio_vsprintf + 606
        0x0000d7b8:    990a        ..      LDR      r1,[sp,#0x28]
        0x0000d7ba:    f8510b04    Q...    LDR      r0,[r1],#4
        0x0000d7be:    910a        ..      STR      r1,[sp,#0x28]
        0x0000d7c0:    2100        .!      MOVS     r1,#0
        0x0000d7c2:    9a00        ..      LDR      r2,[sp,#0]
        0x0000d7c4:    b38a        ..      CBZ      r2,0xd82a ; am_util_stdio_vsprintf + 710
        0x0000d7c6:    460b        .F      MOV      r3,r1
        0x0000d7c8:    4602        .F      MOV      r2,r0
        0x0000d7ca:    ea500c03    P...    ORRS     r12,r0,r3
        0x0000d7ce:    bf0c        ..      ITE      EQ
        0x0000d7d0:    f04f0c01    O...    MOVEQ    r12,#1
        0x0000d7d4:    f04f0c00    O...    MOVNE    r12,#0
        0x0000d7d8:    d008        ..      BEQ      0xd7ec ; am_util_stdio_vsprintf + 648
        0x0000d7da:    0912        ..      LSRS     r2,r2,#4
        0x0000d7dc:    ea427203    B..r    ORR      r2,r2,r3,LSL #28
        0x0000d7e0:    091b        ..      LSRS     r3,r3,#4
        0x0000d7e2:    f10c0c01    ....    ADD      r12,r12,#1
        0x0000d7e6:    ea520803    R...    ORRS     r8,r2,r3
        0x0000d7ea:    d1f6        ..      BNE      0xd7da ; am_util_stdio_vsprintf + 630
        0x0000d7ec:    9a00        ..      LDR      r2,[sp,#0]
        0x0000d7ee:    9b01        ..      LDR      r3,[sp,#4]
        0x0000d7f0:    eba2020c    ....    SUB      r2,r2,r12
        0x0000d7f4:    46a4        .F      MOV      r12,r4
        0x0000d7f6:    f04f0800    O...    MOV      r8,#0
        0x0000d7fa:    2a00        .*      CMP      r2,#0
        0x0000d7fc:    bfc4        ..      ITT      GT
        0x0000d7fe:    1e52        R.      SUBGT    r2,r2,#1
        0x0000d800:    f1b23fff    ...?    CMPGT    r2,#0xffffffff
        0x0000d804:    dd0b        ..      BLE      0xd81e ; am_util_stdio_vsprintf + 698
        0x0000d806:    bf00        ..      NOP      
        0x0000d808:    f1bc0f00    ....    CMP      r12,#0
        0x0000d80c:    bf18        ..      IT       NE
        0x0000d80e:    f80c3b01    ...;    STRBNE   r3,[r12],#1
        0x0000d812:    1e52        R.      SUBS     r2,r2,#1
        0x0000d814:    f1080801    ....    ADD      r8,r8,#1
        0x0000d818:    f1b23fff    ...?    CMP      r2,#0xffffffff
        0x0000d81c:    dcf4        ..      BGT      0xd808 ; am_util_stdio_vsprintf + 676
        0x0000d81e:    2c00        .,      CMP      r4,#0
        0x0000d820:    bf14        ..      ITE      NE
        0x0000d822:    4642        BF      MOVNE    r2,r8
        0x0000d824:    2200        ."      MOVEQ    r2,#0
        0x0000d826:    4414        .D      ADD      r4,r4,r2
        0x0000d828:    4445        ED      ADD      r5,r5,r8
        0x0000d82a:    46a0        .F      MOV      r8,r4
        0x0000d82c:    f04f0c00    O...    MOV      r12,#0
        0x0000d830:    ea500201    P...    ORRS     r2,r0,r1
        0x0000d834:    d106        ..      BNE      0xd844 ; am_util_stdio_vsprintf + 736
        0x0000d836:    bf00        ..      NOP      
        0x0000d838:    f04f0230    O.0.    MOV      r2,#0x30
        0x0000d83c:    f88d200c    ...     STRB     r2,[sp,#0xc]
        0x0000d840:    f04f0c01    O...    MOV      r12,#1
        0x0000d844:    bf18        ..      IT       NE
        0x0000d846:    ab03        ..      ADDNE    r3,sp,#0xc
        0x0000d848:    d017        ..      BEQ      0xd87a ; am_util_stdio_vsprintf + 790
        0x0000d84a:    bf00        ..      NOP      
        0x0000d84c:    f000020f    ....    AND      r2,r0,#0xf
        0x0000d850:    2a09        .*      CMP      r2,#9
        0x0000d852:    d906        ..      BLS      0xd862 ; am_util_stdio_vsprintf + 766
        0x0000d854:    2f00        ./      CMP      r7,#0
        0x0000d856:    bf14        ..      ITE      NE
        0x0000d858:    f04f0927    O.'.    MOVNE    r9,#0x27
        0x0000d85c:    f04f0907    O...    MOVEQ    r9,#7
        0x0000d860:    444a        JD      ADD      r2,r2,r9
        0x0000d862:    3230        02      ADDS     r2,r2,#0x30
        0x0000d864:    0900        ..      LSRS     r0,r0,#4
        0x0000d866:    f803200c    ...     STRB     r2,[r3,r12]
        0x0000d86a:    ea407001    @..p    ORR      r0,r0,r1,LSL #28
        0x0000d86e:    0909        ..      LSRS     r1,r1,#4
        0x0000d870:    f10c0c01    ....    ADD      r12,r12,#1
        0x0000d874:    ea500201    P...    ORRS     r2,r0,r1
        0x0000d878:    d1e8        ..      BNE      0xd84c ; am_util_stdio_vsprintf + 744
        0x0000d87a:    f1b80f00    ....    CMP      r8,#0
        0x0000d87e:    d022        ".      BEQ      0xd8c6 ; am_util_stdio_vsprintf + 866
        0x0000d880:    f1ac0301    ....    SUB      r3,r12,#1
        0x0000d884:    f1bc0200    ....    SUBS     r2,r12,#0
        0x0000d888:    dd1a        ..      BLE      0xd8c0 ; am_util_stdio_vsprintf + 860
        0x0000d88a:    a803        ..      ADD      r0,sp,#0xc
        0x0000d88c:    4418        .D      ADD      r0,r0,r3
        0x0000d88e:    1c41        A.      ADDS     r1,r0,#1
        0x0000d890:    f1a80001    ....    SUB      r0,r8,#1
        0x0000d894:    f0130f01    ....    TST      r3,#1
        0x0000d898:    d103        ..      BNE      0xd8a2 ; am_util_stdio_vsprintf + 830
        0x0000d89a:    f8117d01    ...}    LDRB     r7,[r1,#-1]!
        0x0000d89e:    f8007f01    ....    STRB     r7,[r0,#1]!
        0x0000d8a2:    1052        R.      ASRS     r2,r2,#1
        0x0000d8a4:    d009        ..      BEQ      0xd8ba ; am_util_stdio_vsprintf + 854
        0x0000d8a6:    bf00        ..      NOP      
        0x0000d8a8:    f8117c01    ...|    LDRB     r7,[r1,#-1]
        0x0000d8ac:    7047        Gp      STRB     r7,[r0,#1]
        0x0000d8ae:    f8117d02    ...}    LDRB     r7,[r1,#-2]!
        0x0000d8b2:    f8007f02    ....    STRB     r7,[r0,#2]!
        0x0000d8b6:    1e52        R.      SUBS     r2,r2,#1
        0x0000d8b8:    d1f6        ..      BNE      0xd8a8 ; am_util_stdio_vsprintf + 836
        0x0000d8ba:    18e0        ..      ADDS     r0,r4,r3
        0x0000d8bc:    f1000801    ....    ADD      r8,r0,#1
        0x0000d8c0:    2000        .       MOVS     r0,#0
        0x0000d8c2:    f8880000    ....    STRB     r0,[r8,#0]
        0x0000d8c6:    2c00        .,      CMP      r4,#0
        0x0000d8c8:    bf18        ..      IT       NE
        0x0000d8ca:    4464        dD      ADDNE    r4,r4,r12
        0x0000d8cc:    4465        eD      ADD      r5,r5,r12
        0x0000d8ce:    f000b9d2    ....    B.W      0xdc76 ; am_util_stdio_vsprintf + 1810
        0x0000d8d2:    bf00        ..      NOP      
        0x0000d8d4:    980a        ..      LDR      r0,[sp,#0x28]
        0x0000d8d6:    f1bc0f00    ....    CMP      r12,#0
        0x0000d8da:    d006        ..      BEQ      0xd8ea ; am_util_stdio_vsprintf + 902
        0x0000d8dc:    1dc0        ..      ADDS     r0,r0,#7
        0x0000d8de:    f0200107     ...    BIC      r1,r0,#7
        0x0000d8e2:    e8f1e002    ....    LDRD     lr,r0,[r1],#8
        0x0000d8e6:    910a        ..      STR      r1,[sp,#0x28]
        0x0000d8e8:    e003        ..      B        0xd8f2 ; am_util_stdio_vsprintf + 910
        0x0000d8ea:    f850eb04    P...    LDR      lr,[r0],#4
        0x0000d8ee:    900a        ..      STR      r0,[sp,#0x28]
        0x0000d8f0:    2000        .       MOVS     r0,#0
        0x0000d8f2:    9003        ..      STR      r0,[sp,#0xc]
        0x0000d8f4:    9800        ..      LDR      r0,[sp,#0]
        0x0000d8f6:    2800        .(      CMP      r0,#0
        0x0000d8f8:    d07e        ~.      BEQ      0xd9f8 ; am_util_stdio_vsprintf + 1172
        0x0000d8fa:    9903        ..      LDR      r1,[sp,#0xc]
        0x0000d8fc:    4670        pF      MOV      r0,lr
        0x0000d8fe:    ea5e0201    ^...    ORRS     r2,lr,r1
        0x0000d902:    bf0e        ..      ITEE     EQ
        0x0000d904:    2301        .#      MOVEQ    r3,#1
        0x0000d906:    2300        .#      MOVNE    r3,#0
        0x0000d908:    f04f0c00    O...    MOVNE    r12,#0
        0x0000d90c:    d05e        ^.      BEQ      0xd9cc ; am_util_stdio_vsprintf + 1128
        0x0000d90e:    b3c1        ..      CBZ      r1,0xd982 ; am_util_stdio_vsprintf + 1054
        0x0000d910:    084a        J.      LSRS     r2,r1,#1
        0x0000d912:    ea4f0990    O...    LSR      r9,r0,#2
        0x0000d916:    ea4f0730    O.0.    RRX      r7,r0
        0x0000d91a:    ea497881    I..x    ORR      r8,r9,r1,LSL #30
        0x0000d91e:    eb170708    ....    ADDS     r7,r7,r8
        0x0000d922:    eb420291    B...    ADC      r2,r2,r1,LSR #2
        0x0000d926:    ea4f1917    O...    LSR      r9,r7,#4
        0x0000d92a:    ea497802    I..x    ORR      r8,r9,r2,LSL #28
        0x0000d92e:    eb180707    ....    ADDS     r7,r8,r7
        0x0000d932:    eb421812    B...    ADC      r8,r2,r2,LSR #4
        0x0000d936:    ea4f2917    O..)    LSR      r9,r7,#8
        0x0000d93a:    ea496208    I..b    ORR      r2,r9,r8,LSL #24
        0x0000d93e:    19d2        ..      ADDS     r2,r2,r7
        0x0000d940:    eb482718    H..'    ADC      r7,r8,r8,LSR #8
        0x0000d944:    ea4f4912    O..I    LSR      r9,r2,#16
        0x0000d948:    ea494807    I..H    ORR      r8,r9,r7,LSL #16
        0x0000d94c:    eb180802    ....    ADDS     r8,r8,r2
        0x0000d950:    eb474217    G..B    ADC      r2,r7,r7,LSR #16
        0x0000d954:    eb180702    ....    ADDS     r7,r8,r2
        0x0000d958:    eb42020c    B...    ADC      r2,r2,r12
        0x0000d95c:    08ff        ..      LSRS     r7,r7,#3
        0x0000d95e:    ea477742    G.Bw    ORR      r7,r7,r2,LSL #29
        0x0000d962:    f04f080a    O...    MOV      r8,#0xa
        0x0000d966:    fba7ab08    ....    UMULL    r10,r11,r7,r8
        0x0000d96a:    08d2        ..      LSRS     r2,r2,#3
        0x0000d96c:    fb02b808    ....    MLA      r8,r2,r8,r11
        0x0000d970:    f04f0900    O...    MOV      r9,#0
        0x0000d974:    fb078909    ....    MLA      r9,r7,r9,r8
        0x0000d978:    ebb0080a    ....    SUBS     r8,r0,r10
        0x0000d97c:    eb610009    a...    SBC      r0,r1,r9
        0x0000d980:    e002        ..      B        0xd988 ; am_util_stdio_vsprintf + 1060
        0x0000d982:    e00c        ..      B        0xd99e ; am_util_stdio_vsprintf + 1082
    $d
        0x0000d984:    1000002c    ,...    DCD    268435500
    $t
        0x0000d988:    f1180106    ....    ADDS     r1,r8,#6
        0x0000d98c:    f1400800    @...    ADC      r8,r0,#0
        0x0000d990:    0909        ..      LSRS     r1,r1,#4
        0x0000d992:    ea417008    A..p    ORR      r0,r1,r8,LSL #28
        0x0000d996:    19c0        ..      ADDS     r0,r0,r7
        0x0000d998:    eb421118    B...    ADC      r1,r2,r8,LSR #4
        0x0000d99c:    e012        ..      B        0xd9c4 ; am_util_stdio_vsprintf + 1120
        0x0000d99e:    0841        A.      LSRS     r1,r0,#1
        0x0000d9a0:    eb010190    ....    ADD      r1,r1,r0,LSR #2
        0x0000d9a4:    eb011111    ....    ADD      r1,r1,r1,LSR #4
        0x0000d9a8:    eb012111    ...!    ADD      r1,r1,r1,LSR #8
        0x0000d9ac:    eb014111    ...A    ADD      r1,r1,r1,LSR #16
        0x0000d9b0:    08c9        ..      LSRS     r1,r1,#3
        0x0000d9b2:    424a        JB      RSBS     r2,r1,#0
        0x0000d9b4:    eb020282    ....    ADD      r2,r2,r2,LSL #2
        0x0000d9b8:    eb000042    ..B.    ADD      r0,r0,r2,LSL #1
        0x0000d9bc:    1d80        ..      ADDS     r0,r0,#6
        0x0000d9be:    eb011010    ....    ADD      r0,r1,r0,LSR #4
        0x0000d9c2:    4661        aF      MOV      r1,r12
        0x0000d9c4:    1c5b        [.      ADDS     r3,r3,#1
        0x0000d9c6:    ea500201    P...    ORRS     r2,r0,r1
        0x0000d9ca:    d1a0        ..      BNE      0xd90e ; am_util_stdio_vsprintf + 938
        0x0000d9cc:    9800        ..      LDR      r0,[sp,#0]
        0x0000d9ce:    2100        .!      MOVS     r1,#0
        0x0000d9d0:    1ac2        ..      SUBS     r2,r0,r3
        0x0000d9d2:    9b01        ..      LDR      r3,[sp,#4]
        0x0000d9d4:    4620         F      MOV      r0,r4
        0x0000d9d6:    2a00        .*      CMP      r2,#0
        0x0000d9d8:    bfc4        ..      ITT      GT
        0x0000d9da:    1e52        R.      SUBGT    r2,r2,#1
        0x0000d9dc:    f1b23fff    ...?    CMPGT    r2,#0xffffffff
        0x0000d9e0:    dd08        ..      BLE      0xd9f4 ; am_util_stdio_vsprintf + 1168
        0x0000d9e2:    2800        .(      CMP      r0,#0
        0x0000d9e4:    bf18        ..      IT       NE
        0x0000d9e6:    f8003b01    ...;    STRBNE   r3,[r0],#1
        0x0000d9ea:    1c49        I.      ADDS     r1,r1,#1
        0x0000d9ec:    1e52        R.      SUBS     r2,r2,#1
        0x0000d9ee:    f1b23fff    ...?    CMP      r2,#0xffffffff
        0x0000d9f2:    dcf6        ..      BGT      0xd9e2 ; am_util_stdio_vsprintf + 1150
        0x0000d9f4:    2c00        .,      CMP      r4,#0
        0x0000d9f6:    e000        ..      B        0xd9fa ; am_util_stdio_vsprintf + 1174
        0x0000d9f8:    e004        ..      B        0xda04 ; am_util_stdio_vsprintf + 1184
        0x0000d9fa:    bf14        ..      ITE      NE
        0x0000d9fc:    4608        .F      MOVNE    r0,r1
        0x0000d9fe:    2000        .       MOVEQ    r0,#0
        0x0000da00:    4404        .D      ADD      r4,r4,r0
        0x0000da02:    440d        .D      ADD      r5,r5,r1
        0x0000da04:    4622        "F      MOV      r2,r4
        0x0000da06:    4670        pF      MOV      r0,lr
        0x0000da08:    9903        ..      LDR      r1,[sp,#0xc]
        0x0000da0a:    f000fb4f    ..O.    BL       uint64_to_str ; 0xe0ac
        0x0000da0e:    bbdc        ..      CBNZ     r4,0xda88 ; am_util_stdio_vsprintf + 1316
        0x0000da10:    4405        .D      ADD      r5,r5,r0
        0x0000da12:    e130        0.      B        0xdc76 ; am_util_stdio_vsprintf + 1810
        0x0000da14:    980a        ..      LDR      r0,[sp,#0x28]
        0x0000da16:    f1bc0f00    ....    CMP      r12,#0
        0x0000da1a:    d006        ..      BEQ      0xda2a ; am_util_stdio_vsprintf + 1222
        0x0000da1c:    1dc0        ..      ADDS     r0,r0,#7
        0x0000da1e:    f0200007     ...    BIC      r0,r0,#7
        0x0000da22:    e8f08702    ....    LDRD     r8,r7,[r0],#8
        0x0000da26:    900a        ..      STR      r0,[sp,#0x28]
        0x0000da28:    e004        ..      B        0xda34 ; am_util_stdio_vsprintf + 1232
        0x0000da2a:    f8508b04    P...    LDR      r8,[r0],#4
        0x0000da2e:    900a        ..      STR      r0,[sp,#0x28]
        0x0000da30:    ea4f77e8    O..w    ASR      r7,r8,#31
        0x0000da34:    2f00        ./      CMP      r7,#0
        0x0000da36:    bfa8        ..      IT       GE
        0x0000da38:    f04f0900    O...    MOVGE    r9,#0
        0x0000da3c:    da06        ..      BGE      0xda4c ; am_util_stdio_vsprintf + 1256
        0x0000da3e:    2000        .       MOVS     r0,#0
        0x0000da40:    f1d80800    ....    RSBS     r8,r8,#0
        0x0000da44:    eb600707    `...    SBC      r7,r0,r7
        0x0000da48:    f04f0901    O...    MOV      r9,#1
        0x0000da4c:    9800        ..      LDR      r0,[sp,#0]
        0x0000da4e:    b3d8        ..      CBZ      r0,0xdac8 ; am_util_stdio_vsprintf + 1380
        0x0000da50:    4640        @F      MOV      r0,r8
        0x0000da52:    0039        9.      MOVS     r1,r7
        0x0000da54:    d503        ..      BPL      0xda5e ; am_util_stdio_vsprintf + 1274
        0x0000da56:    2200        ."      MOVS     r2,#0
        0x0000da58:    4240        @B      RSBS     r0,r0,#0
        0x0000da5a:    eb620107    b...    SBC      r1,r2,r7
        0x0000da5e:    f000fa11    ....    BL       ndigits_in_u64 ; 0xde84
        0x0000da62:    9900        ..      LDR      r1,[sp,#0]
        0x0000da64:    1a0a        ..      SUBS     r2,r1,r0
        0x0000da66:    f1b90f00    ....    CMP      r9,#0
        0x0000da6a:    d008        ..      BEQ      0xda7e ; am_util_stdio_vsprintf + 1306
        0x0000da6c:    9801        ..      LDR      r0,[sp,#4]
        0x0000da6e:    1e52        R.      SUBS     r2,r2,#1
        0x0000da70:    2830        0(      CMP      r0,#0x30
        0x0000da72:    d104        ..      BNE      0xda7e ; am_util_stdio_vsprintf + 1306
        0x0000da74:    b114        ..      CBZ      r4,0xda7c ; am_util_stdio_vsprintf + 1304
        0x0000da76:    202d        -       MOVS     r0,#0x2d
        0x0000da78:    f8040b01    ....    STRB     r0,[r4],#1
        0x0000da7c:    1c6d        m.      ADDS     r5,r5,#1
        0x0000da7e:    2100        .!      MOVS     r1,#0
        0x0000da80:    4620         F      MOV      r0,r4
        0x0000da82:    9b01        ..      LDR      r3,[sp,#4]
        0x0000da84:    2a00        .*      CMP      r2,#0
        0x0000da86:    e000        ..      B        0xda8a ; am_util_stdio_vsprintf + 1318
        0x0000da88:    e02c        ,.      B        0xdae4 ; am_util_stdio_vsprintf + 1408
        0x0000da8a:    bfc4        ..      ITT      GT
        0x0000da8c:    1e52        R.      SUBGT    r2,r2,#1
        0x0000da8e:    f1b23fff    ...?    CMPGT    r2,#0xffffffff
        0x0000da92:    dd08        ..      BLE      0xdaa6 ; am_util_stdio_vsprintf + 1346
        0x0000da94:    2800        .(      CMP      r0,#0
        0x0000da96:    bf18        ..      IT       NE
        0x0000da98:    f8003b01    ...;    STRBNE   r3,[r0],#1
        0x0000da9c:    1c49        I.      ADDS     r1,r1,#1
        0x0000da9e:    1e52        R.      SUBS     r2,r2,#1
        0x0000daa0:    f1b23fff    ...?    CMP      r2,#0xffffffff
        0x0000daa4:    dcf6        ..      BGT      0xda94 ; am_util_stdio_vsprintf + 1328
        0x0000daa6:    2c00        .,      CMP      r4,#0
        0x0000daa8:    bf14        ..      ITE      NE
        0x0000daaa:    4608        .F      MOVNE    r0,r1
        0x0000daac:    2000        .       MOVEQ    r0,#0
        0x0000daae:    4404        .D      ADD      r4,r4,r0
        0x0000dab0:    440d        .D      ADD      r5,r5,r1
        0x0000dab2:    f1b90f00    ....    CMP      r9,#0
        0x0000dab6:    d00e        ..      BEQ      0xdad6 ; am_util_stdio_vsprintf + 1394
        0x0000dab8:    9801        ..      LDR      r0,[sp,#4]
        0x0000daba:    2820         (      CMP      r0,#0x20
        0x0000dabc:    d10b        ..      BNE      0xdad6 ; am_util_stdio_vsprintf + 1394
        0x0000dabe:    b14c        L.      CBZ      r4,0xdad4 ; am_util_stdio_vsprintf + 1392
        0x0000dac0:    202d        -       MOVS     r0,#0x2d
        0x0000dac2:    f8040b01    ....    STRB     r0,[r4],#1
        0x0000dac6:    e005        ..      B        0xdad4 ; am_util_stdio_vsprintf + 1392
        0x0000dac8:    e7ff        ..      B        0xdaca ; am_util_stdio_vsprintf + 1382
        0x0000daca:    f1b90f00    ....    CMP      r9,#0
        0x0000dace:    d002        ..      BEQ      0xdad6 ; am_util_stdio_vsprintf + 1394
        0x0000dad0:    2c00        .,      CMP      r4,#0
        0x0000dad2:    d1f5        ..      BNE      0xdac0 ; am_util_stdio_vsprintf + 1372
        0x0000dad4:    1c6d        m.      ADDS     r5,r5,#1
        0x0000dad6:    4622        "F      MOV      r2,r4
        0x0000dad8:    4640        @F      MOV      r0,r8
        0x0000dada:    4639        9F      MOV      r1,r7
        0x0000dadc:    f000fae6    ....    BL       uint64_to_str ; 0xe0ac
        0x0000dae0:    2c00        .,      CMP      r4,#0
        0x0000dae2:    d095        ..      BEQ      0xda10 ; am_util_stdio_vsprintf + 1196
        0x0000dae4:    4404        .D      ADD      r4,r4,r0
        0x0000dae6:    e793        ..      B        0xda10 ; am_util_stdio_vsprintf + 1196
        0x0000dae8:    2c00        .,      CMP      r4,#0
        0x0000daea:    d07d        }.      BEQ      0xdbe8 ; am_util_stdio_vsprintf + 1668
        0x0000daec:    980a        ..      LDR      r0,[sp,#0x28]
        0x0000daee:    1dc0        ..      ADDS     r0,r0,#7
        0x0000daf0:    f0200007     ...    BIC      r0,r0,#7
        0x0000daf4:    ecb00b02    ....    VLDM     r0!,{d0}
        0x0000daf8:    900a        ..      STR      r0,[sp,#0x28]
        0x0000dafa:    ec510b10    Q...    VMOV     r0,r1,d0
        0x0000dafe:    f000fb69    ..i.    BL       __aeabi_d2f ; 0xe1d4
        0x0000db02:    ee000a10    ....    VMOV     s0,r0
        0x0000db06:    f04f0a14    O...    MOV      r10,#0x14
        0x0000db0a:    4627        'F      MOV      r7,r4
        0x0000db0c:    eeb50ac0    ....    VCMPE.F32 s0,#0.0
        0x0000db10:    f8c4a000    ....    STR      r10,[r4,#0]
        0x0000db14:    eef1fa10    ....    VMRS     APSR_nzcv,FPSCR
        0x0000db18:    d103        ..      BNE      0xdb22 ; am_util_stdio_vsprintf + 1470
        0x0000db1a:    485f        _H      LDR      r0,[pc,#380] ; [0xdc98] = 0x302e30
        0x0000db1c:    6020         `      STR      r0,[r4,#0]
        0x0000db1e:    2003        .       MOVS     r0,#3
        0x0000db20:    e0a7        ..      B        0xdc72 ; am_util_stdio_vsprintf + 1806
        0x0000db22:    ee100a10    ....    VMOV     r0,s0
        0x0000db26:    f04f0800    O...    MOV      r8,#0
        0x0000db2a:    46a3        .F      MOV      r11,r4
        0x0000db2c:    f3c051c7    ...Q    UBFX     r1,r0,#23,#8
        0x0000db30:    f020427f     ..B    BIC      r2,r0,#0xff000000
        0x0000db34:    397f        .9      SUBS     r1,r1,#0x7f
        0x0000db36:    f4420200    B...    ORR      r2,r2,#0x800000
        0x0000db3a:    4643        CF      MOV      r3,r8
        0x0000db3c:    291f        .)      CMP      r1,#0x1f
        0x0000db3e:    da7d        }.      BGE      0xdc3c ; am_util_stdio_vsprintf + 1752
        0x0000db40:    f1110f17    ....    CMN      r1,#0x17
        0x0000db44:    db7b        {.      BLT      0xdc3e ; am_util_stdio_vsprintf + 1754
        0x0000db46:    2917        .)      CMP      r1,#0x17
        0x0000db48:    bfa4        ..      ITT      GE
        0x0000db4a:    3917        .9      SUBGE    r1,r1,#0x17
        0x0000db4c:    fa02f301    ....    LSLGE    r3,r2,r1
        0x0000db50:    da0e        ..      BGE      0xdb70 ; am_util_stdio_vsprintf + 1548
        0x0000db52:    2900        .)      CMP      r1,#0
        0x0000db54:    bfbc        ..      ITT      LT
        0x0000db56:    43c9        .C      MVNLT    r1,r1
        0x0000db58:    fa22f801    "...    LSRLT    r8,r2,r1
        0x0000db5c:    db08        ..      BLT      0xdb70 ; am_util_stdio_vsprintf + 1548
        0x0000db5e:    f1c10317    ....    RSB      r3,r1,#0x17
        0x0000db62:    fa42f303    B...    ASR      r3,r2,r3
        0x0000db66:    1c49        I.      ADDS     r1,r1,#1
        0x0000db68:    fa02f101    ....    LSL      r1,r2,r1
        0x0000db6c:    f021487f    !..H    BIC      r8,r1,#0xff000000
        0x0000db70:    2800        .(      CMP      r0,#0
        0x0000db72:    da03        ..      BGE      0xdb7c ; am_util_stdio_vsprintf + 1560
        0x0000db74:    202d        -       MOVS     r0,#0x2d
        0x0000db76:    7038        8p      STRB     r0,[r7,#0]
        0x0000db78:    f10b0701    ....    ADD      r7,r11,#1
        0x0000db7c:    2b00        .+      CMP      r3,#0
        0x0000db7e:    bf04        ..      ITT      EQ
        0x0000db80:    2030        0       MOVEQ    r0,#0x30
        0x0000db82:    f8070b01    ....    STRBEQ   r0,[r7],#1
        0x0000db86:    d015        ..      BEQ      0xdbb4 ; am_util_stdio_vsprintf + 1616
        0x0000db88:    dd06        ..      BLE      0xdb98 ; am_util_stdio_vsprintf + 1588
        0x0000db8a:    463a        :F      MOV      r2,r7
        0x0000db8c:    4618        .F      MOV      r0,r3
        0x0000db8e:    ea4f71e3    O..q    ASR      r1,r3,#31
        0x0000db92:    f000fa8b    ....    BL       uint64_to_str ; 0xe0ac
        0x0000db96:    e007        ..      B        0xdba8 ; am_util_stdio_vsprintf + 1604
        0x0000db98:    202d        -       MOVS     r0,#0x2d
        0x0000db9a:    f8070b01    ....    STRB     r0,[r7],#1
        0x0000db9e:    4258        XB      RSBS     r0,r3,#0
        0x0000dba0:    463a        :F      MOV      r2,r7
        0x0000dba2:    17c1        ..      ASRS     r1,r0,#31
        0x0000dba4:    f000fa82    ....    BL       uint64_to_str ; 0xe0ac
        0x0000dba8:    7838        8x      LDRB     r0,[r7,#0]
        0x0000dbaa:    b118        ..      CBZ      r0,0xdbb4 ; am_util_stdio_vsprintf + 1616
        0x0000dbac:    f8170f01    ....    LDRB     r0,[r7,#1]!
        0x0000dbb0:    2800        .(      CMP      r0,#0
        0x0000dbb2:    d1fb        ..      BNE      0xdbac ; am_util_stdio_vsprintf + 1608
        0x0000dbb4:    202e        .       MOVS     r0,#0x2e
        0x0000dbb6:    1c7a        z.      ADDS     r2,r7,#1
        0x0000dbb8:    7038        8p      STRB     r0,[r7,#0]
        0x0000dbba:    f1b80f00    ....    CMP      r8,#0
        0x0000dbbe:    d041        A.      BEQ      0xdc44 ; am_util_stdio_vsprintf + 1760
        0x0000dbc0:    eba2000b    ....    SUB      r0,r2,r11
        0x0000dbc4:    ebaa0000    ....    SUB      r0,r10,r0
        0x0000dbc8:    f1a00c01    ....    SUB      r12,r0,#1
        0x0000dbcc:    45cc        .E      CMP      r12,r9
        0x0000dbce:    bfc8        ..      IT       GT
        0x0000dbd0:    46cc        .F      MOVGT    r12,r9
        0x0000dbd2:    f1bc0f00    ....    CMP      r12,#0
        0x0000dbd6:    dd11        ..      BLE      0xdbfc ; am_util_stdio_vsprintf + 1688
        0x0000dbd8:    4617        .F      MOV      r7,r2
        0x0000dbda:    4660        `F      MOV      r0,r12
        0x0000dbdc:    f05f0330    _.0.    MOVS.W   r3,#0x30
        0x0000dbe0:    eb080188    ....    ADD      r1,r8,r8,LSL #2
        0x0000dbe4:    0049        I.      LSLS     r1,r1,#1
        0x0000dbe6:    e000        ..      B        0xdbea ; am_util_stdio_vsprintf + 1670
        0x0000dbe8:    e045        E.      B        0xdc76 ; am_util_stdio_vsprintf + 1810
        0x0000dbea:    eb036821    ..!h    ADD      r8,r3,r1,ASR #24
        0x0000dbee:    f8078b01    ....    STRB     r8,[r7],#1
        0x0000dbf2:    f021487f    !..H    BIC      r8,r1,#0xff000000
        0x0000dbf6:    1e40        @.      SUBS     r0,r0,#1
        0x0000dbf8:    d1f2        ..      BNE      0xdbe0 ; am_util_stdio_vsprintf + 1660
        0x0000dbfa:    4462        bD      ADD      r2,r2,r12
        0x0000dbfc:    eb080088    ....    ADD      r0,r8,r8,LSL #2
        0x0000dc00:    0041        A.      LSLS     r1,r0,#1
        0x0000dc02:    2005        .       MOVS     r0,#5
        0x0000dc04:    ebb06f21    ..!o    CMP      r0,r1,ASR #24
        0x0000dc08:    dc24        $.      BGT      0xdc54 ; am_util_stdio_vsprintf + 1776
        0x0000dc0a:    1e50        P.      SUBS     r0,r2,#1
        0x0000dc0c:    ebab0300    ....    SUB      r3,r11,r0
        0x0000dc10:    2101        .!      MOVS     r1,#1
        0x0000dc12:    f1c30301    ....    RSB      r3,r3,#1
        0x0000dc16:    2b01        .+      CMP      r3,#1
        0x0000dc18:    bfa8        ..      IT       GE
        0x0000dc1a:    2730        0'      MOVGE    r7,#0x30
        0x0000dc1c:    db1a        ..      BLT      0xdc54 ; am_util_stdio_vsprintf + 1776
        0x0000dc1e:    bf00        ..      NOP      
        0x0000dc20:    f890c000    ....    LDRB     r12,[r0,#0]
        0x0000dc24:    f1bc0f2e    ....    CMP      r12,#0x2e
        0x0000dc28:    d010        ..      BEQ      0xdc4c ; am_util_stdio_vsprintf + 1768
        0x0000dc2a:    f1bc0f39    ..9.    CMP      r12,#0x39
        0x0000dc2e:    bf08        ..      IT       EQ
        0x0000dc30:    7007        .p      STRBEQ   r7,[r0,#0]
        0x0000dc32:    d00b        ..      BEQ      0xdc4c ; am_util_stdio_vsprintf + 1768
        0x0000dc34:    f00c01ff    ....    AND      r1,r12,#0xff
        0x0000dc38:    1c49        I.      ADDS     r1,r1,#1
        0x0000dc3a:    e001        ..      B        0xdc40 ; am_util_stdio_vsprintf + 1756
        0x0000dc3c:    e02a        *.      B        0xdc94 ; am_util_stdio_vsprintf + 1840
        0x0000dc3e:    e027        '.      B        0xdc90 ; am_util_stdio_vsprintf + 1836
        0x0000dc40:    7001        .p      STRB     r1,[r0,#0]
        0x0000dc42:    e007        ..      B        0xdc54 ; am_util_stdio_vsprintf + 1776
        0x0000dc44:    2030        0       MOVS     r0,#0x30
        0x0000dc46:    f8020b01    ....    STRB     r0,[r2],#1
        0x0000dc4a:    e003        ..      B        0xdc54 ; am_util_stdio_vsprintf + 1776
        0x0000dc4c:    1e40        @.      SUBS     r0,r0,#1
        0x0000dc4e:    1c49        I.      ADDS     r1,r1,#1
        0x0000dc50:    428b        .B      CMP      r3,r1
        0x0000dc52:    dae5        ..      BGE      0xdc20 ; am_util_stdio_vsprintf + 1724
        0x0000dc54:    2000        .       MOVS     r0,#0
        0x0000dc56:    7010        .p      STRB     r0,[r2,#0]
        0x0000dc58:    ebb2000b    ....    SUBS     r0,r2,r11
        0x0000dc5c:    d509        ..      BPL      0xdc72 ; am_util_stdio_vsprintf + 1806
        0x0000dc5e:    f1b03fff    ...?    CMP      r0,#0xffffffff
        0x0000dc62:    d015        ..      BEQ      0xdc90 ; am_util_stdio_vsprintf + 1836
        0x0000dc64:    f1100f02    ....    CMN      r0,#2
        0x0000dc68:    bf18        ..      IT       NE
        0x0000dc6a:    480c        .H      LDRNE    r0,[pc,#48] ; [0xdc9c] = 0x3f2e3f
        0x0000dc6c:    d012        ..      BEQ      0xdc94 ; am_util_stdio_vsprintf + 1840
        0x0000dc6e:    6020         `      STR      r0,[r4,#0]
        0x0000dc70:    2003        .       MOVS     r0,#3
        0x0000dc72:    4405        .D      ADD      r5,r5,r0
        0x0000dc74:    4404        .D      ADD      r4,r4,r0
        0x0000dc76:    1c71        q.      ADDS     r1,r6,#1
        0x0000dc78:    7808        .x      LDRB     r0,[r1,#0]
        0x0000dc7a:    2800        .(      CMP      r0,#0
        0x0000dc7c:    f47fac7c    ..|.    BNE      0xd578 ; am_util_stdio_vsprintf + 20
        0x0000dc80:    2c00        .,      CMP      r4,#0
        0x0000dc82:    bf1c        ..      ITT      NE
        0x0000dc84:    2000        .       MOVNE    r0,#0
        0x0000dc86:    7020         p      STRBNE   r0,[r4,#0]
        0x0000dc88:    4628        (F      MOV      r0,r5
        0x0000dc8a:    b00b        ..      ADD      sp,sp,#0x2c
        0x0000dc8c:    e8bd8ff0    ....    POP      {r4-r11,pc}
        0x0000dc90:    4801        .H      LDR      r0,[pc,#4] ; [0xdc98] = 0x302e30
        0x0000dc92:    e7ec        ..      B        0xdc6e ; am_util_stdio_vsprintf + 1802
        0x0000dc94:    4802        .H      LDR      r0,[pc,#8] ; [0xdca0] = 0x232e23
        0x0000dc96:    e7ea        ..      B        0xdc6e ; am_util_stdio_vsprintf + 1802
    $d
        0x0000dc98:    00302e30    0.0.    DCD    3157552
        0x0000dc9c:    003f2e3f    ?.?.    DCD    4140607
        0x0000dca0:    00232e23    #.#.    DCD    2305571
        0x0000dca4:    00000000    ....    DCD    0
    $t
    i.main
    main
        0x0000dca8:    2100        .!      MOVS     r1,#0
        0x0000dcaa:    b082        ..      SUB      sp,sp,#8
        0x0000dcac:    4608        .F      MOV      r0,r1
        0x0000dcae:    f7fefbf7    ....    BL       am_hal_clkgen_control ; 0xc4a0
        0x0000dcb2:    4859        YH      LDR      r0,[pc,#356] ; [0xde18] = 0xe2e6
        0x0000dcb4:    f7fefbc4    ....    BL       am_hal_cachectrl_config ; 0xc440
        0x0000dcb8:    f7fefbe8    ....    BL       am_hal_cachectrl_enable ; 0xc48c
        0x0000dcbc:    2105        .!      MOVS     r1,#5
        0x0000dcbe:    4857        WH      LDR      r0,[pc,#348] ; [0xde1c] = 0x10000040
        0x0000dcc0:    f7fefb10    ....    BL       am_devices_led_array_init ; 0xc2e4
        0x0000dcc4:    4c56        VL      LDR      r4,[pc,#344] ; [0xde20] = 0x10000000
        0x0000dcc6:    2105        .!      MOVS     r1,#5
        0x0000dcc8:    4854        TH      LDR      r0,[pc,#336] ; [0xde1c] = 0x10000040
        0x0000dcca:    6862        bh      LDR      r2,[r4,#4]
        0x0000dccc:    f7fefb4e    ..N.    BL       am_devices_led_array_out ; 0xc36c
        0x0000dcd0:    f7fefaea    ....    BL       am_bsp_itm_printf_enable ; 0xc2a8
        0x0000dcd4:    f7fffc28    ..(.    BL       am_util_stdio_terminal_clear ; 0xd528
        0x0000dcd8:    a052        R.      ADR      r0,{pc}+0x14c ; 0xde24
        0x0000dcda:    f7fffc05    ....    BL       am_util_stdio_printf ; 0xd4e8
        0x0000dcde:    2104        .!      MOVS     r1,#4
        0x0000dce0:    484e        NH      LDR      r0,[pc,#312] ; [0xde1c] = 0x10000040
        0x0000dce2:    f7fefb96    ....    BL       am_devices_led_on ; 0xc412
        0x0000dce6:    f44f7096    O..p    MOV      r0,#0x12c
        0x0000dcea:    f7fff991    ....    BL       am_util_delay_ms ; 0xd010
        0x0000dcee:    f1040108    ....    ADD      r1,r4,#8
        0x0000dcf2:    2000        .       MOVS     r0,#0
        0x0000dcf4:    f7fefff8    ....    BL       am_hal_pdm_initialize ; 0xcce8
        0x0000dcf8:    2200        ."      MOVS     r2,#0
        0x0000dcfa:    4611        .F      MOV      r1,r2
        0x0000dcfc:    68a0        .h      LDR      r0,[r4,#8]
        0x0000dcfe:    f7fff863    ..c.    BL       am_hal_pdm_power_control ; 0xcdc8
        0x0000dd02:    f104010c    ....    ADD      r1,r4,#0xc
        0x0000dd06:    68a0        .h      LDR      r0,[r4,#8]
        0x0000dd08:    f7fefecc    ....    BL       am_hal_pdm_configure ; 0xcaa4
        0x0000dd0c:    68a0        .h      LDR      r0,[r4,#8]
        0x0000dd0e:    f7feffb9    ....    BL       am_hal_pdm_enable ; 0xcc84
        0x0000dd12:    2700        .'      MOVS     r7,#0
        0x0000dd14:    2107        .!      MOVS     r1,#7
        0x0000dd16:    200b        .       MOVS     r0,#0xb
        0x0000dd18:    f7fefc6c    ..l.    BL       am_hal_gpio_pinconfig ; 0xc5f4
        0x0000dd1c:    2105        .!      MOVS     r1,#5
        0x0000dd1e:    200c        .       MOVS     r0,#0xc
        0x0000dd20:    f7fefc68    ..h.    BL       am_hal_gpio_pinconfig ; 0xc5f4
        0x0000dd24:    2100        .!      MOVS     r1,#0
        0x0000dd26:    200e        .       MOVS     r0,#0xe
        0x0000dd28:    f7fefda4    ....    BL       am_hal_gpio_state_write ; 0xc874
        0x0000dd2c:    4842        BH      LDR      r0,[pc,#264] ; [0xde38] = 0xe454
        0x0000dd2e:    6801        .h      LDR      r1,[r0,#0]
        0x0000dd30:    200e        .       MOVS     r0,#0xe
        0x0000dd32:    f7fefc5f    .._.    BL       am_hal_gpio_pinconfig ; 0xc5f4
        0x0000dd36:    211e        .!      MOVS     r1,#0x1e
        0x0000dd38:    68a0        .h      LDR      r0,[r4,#8]
        0x0000dd3a:    f7fff80b    ....    BL       am_hal_pdm_interrupt_enable ; 0xcd54
        0x0000dd3e:    f04f21e0    O..!    MOV      r1,#0xe000e000
        0x0000dd42:    f44f2000    O..     MOV      r0,#0x80000
        0x0000dd46:    f8c10100    ....    STR      r0,[r1,#0x100]
        0x0000dd4a:    f104060c    ....    ADD      r6,r4,#0xc
        0x0000dd4e:    7c30        0|      LDRB     r0,[r6,#0x10]
        0x0000dd50:    2808        .(      CMP      r0,#8
        0x0000dd52:    d213        ..      BCS      0xdd7c ; main + 212
        0x0000dd54:    e8dff000    ....    TBB      [pc,r0]
    $d
        0x0000dd58:    08060412    ....    DCD    134611986
        0x0000dd5c:    100e0c0a    ....    DCD    269356042
    $t
        0x0000dd60:    4d36        6M      LDR      r5,[pc,#216] ; [0xde3c] = 0xb71b00
        0x0000dd62:    e00c        ..      B        0xdd7e ; main + 214
        0x0000dd64:    4d36        6M      LDR      r5,[pc,#216] ; [0xde40] = 0x5b8d80
        0x0000dd66:    e00a        ..      B        0xdd7e ; main + 214
        0x0000dd68:    4d36        6M      LDR      r5,[pc,#216] ; [0xde44] = 0x2dc6c0
        0x0000dd6a:    e008        ..      B        0xdd7e ; main + 214
        0x0000dd6c:    4d36        6M      LDR      r5,[pc,#216] ; [0xde48] = 0x16e360
        0x0000dd6e:    e006        ..      B        0xdd7e ; main + 214
        0x0000dd70:    4d36        6M      LDR      r5,[pc,#216] ; [0xde4c] = 0xb71b0
        0x0000dd72:    e004        ..      B        0xdd7e ; main + 214
        0x0000dd74:    4d36        6M      LDR      r5,[pc,#216] ; [0xde50] = 0x5b8d8
        0x0000dd76:    e002        ..      B        0xdd7e ; main + 214
        0x0000dd78:    4d36        6M      LDR      r5,[pc,#216] ; [0xde54] = 0x2da78
        0x0000dd7a:    e000        ..      B        0xdd7e ; main + 214
        0x0000dd7c:    2500        .%      MOVS     r5,#0
        0x0000dd7e:    4836        6H      LDR      r0,[pc,#216] ; [0xde58] = 0xdff8
        0x0000dd80:    f7fffbb2    ....    BL       am_util_stdio_printf ; 0xd4e8
        0x0000dd84:    4629        )F      MOV      r1,r5
        0x0000dd86:    4835        5H      LDR      r0,[pc,#212] ; [0xde5c] = 0xe004
        0x0000dd88:    f7fffbae    ....    BL       am_util_stdio_printf ; 0xd4e8
        0x0000dd8c:    4834        4H      LDR      r0,[pc,#208] ; [0xde60] = 0xe024
        0x0000dd8e:    6871        qh      LDR      r1,[r6,#4]
        0x0000dd90:    f7fffbaa    ....    BL       am_util_stdio_printf ; 0xd4e8
        0x0000dd94:    f44f517a    O.zQ    MOV      r1,#0x3e80
        0x0000dd98:    4832        2H      LDR      r0,[pc,#200] ; [0xde64] = 0xe044
        0x0000dd9a:    f7fffba5    ....    BL       am_util_stdio_printf ; 0xd4e8
        0x0000dd9e:    f44f51fa    O..Q    MOV      r1,#0x1f40
        0x0000dda2:    4831        1H      LDR      r0,[pc,#196] ; [0xde68] = 0xe064
        0x0000dda4:    f7fffba0    ....    BL       am_util_stdio_printf ; 0xd4e8
        0x0000dda8:    ed9f0b31    ..1.    VLDR     d0,[pc,#196] ; [0xde70] = 0
        0x0000ddac:    4832        2H      LDR      r0,[pc,#200] ; [0xde78] = 0xe090
        0x0000ddae:    ec532b10    S..+    VMOV     r2,r3,d0
        0x0000ddb2:    f7fffb99    ....    BL       am_util_stdio_printf ; 0xd4e8
        0x0000ddb6:    68a0        .h      LDR      r0,[r4,#8]
        0x0000ddb8:    f7feff80    ....    BL       am_hal_pdm_fifo_flush ; 0xccbc
        0x0000ddbc:    482f        /H      LDR      r0,[pc,#188] ; [0xde7c] = 0x10001098
        0x0000ddbe:    9000        ..      STR      r0,[sp,#0]
        0x0000ddc0:    f44f40fa    O..@    MOV      r0,#0x7d00
        0x0000ddc4:    9001        ..      STR      r0,[sp,#4]
        0x0000ddc6:    68a0        .h      LDR      r0,[r4,#8]
        0x0000ddc8:    f7feff5c    ..\.    BL       am_hal_pdm_enable ; 0xcc84
        0x0000ddcc:    2064        d       MOVS     r0,#0x64
        0x0000ddce:    f7fff91f    ....    BL       am_util_delay_ms ; 0xd010
        0x0000ddd2:    68a0        .h      LDR      r0,[r4,#8]
        0x0000ddd4:    f7feff72    ..r.    BL       am_hal_pdm_fifo_flush ; 0xccbc
        0x0000ddd8:    4669        iF      MOV      r1,sp
        0x0000ddda:    68a0        .h      LDR      r0,[r4,#8]
        0x0000dddc:    f7feff08    ....    BL       am_hal_pdm_dma_start ; 0xcbf0
        0x0000dde0:    2104        .!      MOVS     r1,#4
        0x0000dde2:    480e        .H      LDR      r0,[pc,#56] ; [0xde1c] = 0x10000040
        0x0000dde4:    f7fefafe    ....    BL       am_devices_led_off ; 0xc3e4
        0x0000dde8:    f7fefa0c    ....    BL       am_hal_interrupt_master_disable ; 0xc204
        0x0000ddec:    7820         x      LDRB     r0,[r4,#0]
        0x0000ddee:    b150        P.      CBZ      r0,0xde06 ; main + 350
        0x0000ddf0:    7027        'p      STRB     r7,[r4,#0]
        0x0000ddf2:    2000        .       MOVS     r0,#0
        0x0000ddf4:    1c40        @.      ADDS     r0,r0,#1
        0x0000ddf6:    b280        ..      UXTH     r0,r0
        0x0000ddf8:    f5b05ffa    ..._    CMP      r0,#0x1f40
        0x0000ddfc:    d3fa        ..      BCC      0xddf4 ; main + 332
        0x0000ddfe:    4820         H      LDR      r0,[pc,#128] ; [0xde80] = 0xdf60
        0x0000de00:    f7fffb72    ..r.    BL       am_util_stdio_printf ; 0xd4e8
        0x0000de04:    e7fe        ..      B        0xde04 ; main + 348
        0x0000de06:    2001        .       MOVS     r0,#1
        0x0000de08:    f7fff86c    ..l.    BL       am_hal_sysctrl_sleep ; 0xcee4
        0x0000de0c:    f7fef9f6    ....    BL       am_hal_interrupt_master_enable ; 0xc1fc
        0x0000de10:    e7ea        ..      B        0xdde8 ; main + 320
    $d
        0x0000de12:    0000        ..      DCW    0
        0x0000de14:    00000000    ....    DCD    0
        0x0000de18:    0000e2e6    ....    DCD    58086
        0x0000de1c:    10000040    @...    DCD    268435520
        0x0000de20:    10000000    ....    DCD    268435456
        0x0000de24:    204d4450    PDM     DCD    541934672
        0x0000de28:    20544646    FFT     DCD    542393926
        0x0000de2c:    6d617865    exam    DCD    1835104357
        0x0000de30:    2e656c70    ple.    DCD    778398832
        0x0000de34:    00000a0a    ....    DCD    2570
        0x0000de38:    0000e454    T...    DCD    58452
        0x0000de3c:    00b71b00    ....    DCD    12000000
        0x0000de40:    005b8d80    ..[.    DCD    6000000
        0x0000de44:    002dc6c0    ..-.    DCD    3000000
        0x0000de48:    0016e360    `...    DCD    1500000
        0x0000de4c:    000b71b0    .q..    DCD    750000
        0x0000de50:    0005b8d8    ....    DCD    375000
        0x0000de54:    0002da78    x...    DCD    187000
        0x0000de58:    0000dff8    ....    DCD    57336
        0x0000de5c:    0000e004    ....    DCD    57348
        0x0000de60:    0000e024    $...    DCD    57380
        0x0000de64:    0000e044    D...    DCD    57412
        0x0000de68:    0000e064    d...    DCD    57444
        0x0000de6c:    00000000    ....    DCD    0
        0x0000de70:    00000000    ....    DCD    0
        0x0000de74:    3fc00000    ...?    DCD    1069547520
        0x0000de78:    0000e090    ....    DCD    57488
        0x0000de7c:    10001098    ....    DCD    268439704
        0x0000de80:    0000df60    `...    DCD    57184
    $t
    i.ndigits_in_u64
    ndigits_in_u64
        0x0000de84:    e92d01f0    -...    PUSH     {r4-r8}
        0x0000de88:    ea500201    P...    ORRS     r2,r0,r1
        0x0000de8c:    bf0e        ..      ITEE     EQ
        0x0000de8e:    2301        .#      MOVEQ    r3,#1
        0x0000de90:    2300        .#      MOVNE    r3,#0
        0x0000de92:    f04f0c00    O...    MOVNE    r12,#0
        0x0000de96:    d054        T.      BEQ      0xdf42 ; ndigits_in_u64 + 190
        0x0000de98:    2900        .)      CMP      r1,#0
        0x0000de9a:    d03b        ;.      BEQ      0xdf14 ; ndigits_in_u64 + 144
        0x0000de9c:    084c        L.      LSRS     r4,r1,#1
        0x0000de9e:    ea4f0690    O...    LSR      r6,r0,#2
        0x0000dea2:    ea4f0230    O.0.    RRX      r2,r0
        0x0000dea6:    ea467681    F..v    ORR      r6,r6,r1,LSL #30
        0x0000deaa:    1992        ..      ADDS     r2,r2,r6
        0x0000deac:    eb440491    D...    ADC      r4,r4,r1,LSR #2
        0x0000deb0:    ea4f1612    O...    LSR      r6,r2,#4
        0x0000deb4:    ea467504    F..u    ORR      r5,r6,r4,LSL #28
        0x0000deb8:    18aa        ..      ADDS     r2,r5,r2
        0x0000deba:    eb441414    D...    ADC      r4,r4,r4,LSR #4
        0x0000debe:    ea4f2612    O..&    LSR      r6,r2,#8
        0x0000dec2:    ea466504    F..e    ORR      r5,r6,r4,LSL #24
        0x0000dec6:    18aa        ..      ADDS     r2,r5,r2
        0x0000dec8:    eb442514    D..%    ADC      r5,r4,r4,LSR #8
        0x0000decc:    ea4f4612    O..F    LSR      r6,r2,#16
        0x0000ded0:    ea464405    F..D    ORR      r4,r6,r5,LSL #16
        0x0000ded4:    18a4        ..      ADDS     r4,r4,r2
        0x0000ded6:    eb454215    E..B    ADC      r2,r5,r5,LSR #16
        0x0000deda:    18a4        ..      ADDS     r4,r4,r2
        0x0000dedc:    eb42020c    B...    ADC      r2,r2,r12
        0x0000dee0:    08e4        ..      LSRS     r4,r4,#3
        0x0000dee2:    ea447442    D.Bt    ORR      r4,r4,r2,LSL #29
        0x0000dee6:    270a        .'      MOVS     r7,#0xa
        0x0000dee8:    fba45807    ...X    UMULL    r5,r8,r4,r7
        0x0000deec:    08d2        ..      LSRS     r2,r2,#3
        0x0000deee:    fb028707    ....    MLA      r7,r2,r7,r8
        0x0000def2:    2600        .&      MOVS     r6,#0
        0x0000def4:    fb047606    ...v    MLA      r6,r4,r6,r7
        0x0000def8:    1b40        @.      SUBS     r0,r0,r5
        0x0000defa:    eb610106    a...    SBC      r1,r1,r6
        0x0000defe:    1d85        ..      ADDS     r5,r0,#6
        0x0000df00:    f1410000    A...    ADC      r0,r1,#0
        0x0000df04:    092d        -.      LSRS     r5,r5,#4
        0x0000df06:    ea457100    E..q    ORR      r1,r5,r0,LSL #28
        0x0000df0a:    0905        ..      LSRS     r5,r0,#4
        0x0000df0c:    1908        ..      ADDS     r0,r1,r4
        0x0000df0e:    eb450102    E...    ADC      r1,r5,r2
        0x0000df12:    e012        ..      B        0xdf3a ; ndigits_in_u64 + 182
        0x0000df14:    0841        A.      LSRS     r1,r0,#1
        0x0000df16:    eb010190    ....    ADD      r1,r1,r0,LSR #2
        0x0000df1a:    eb011111    ....    ADD      r1,r1,r1,LSR #4
        0x0000df1e:    eb012111    ...!    ADD      r1,r1,r1,LSR #8
        0x0000df22:    eb014111    ...A    ADD      r1,r1,r1,LSR #16
        0x0000df26:    08c9        ..      LSRS     r1,r1,#3
        0x0000df28:    424a        JB      RSBS     r2,r1,#0
        0x0000df2a:    eb020282    ....    ADD      r2,r2,r2,LSL #2
        0x0000df2e:    eb000042    ..B.    ADD      r0,r0,r2,LSL #1
        0x0000df32:    1d80        ..      ADDS     r0,r0,#6
        0x0000df34:    eb011010    ....    ADD      r0,r1,r0,LSR #4
        0x0000df38:    4661        aF      MOV      r1,r12
        0x0000df3a:    1c5b        [.      ADDS     r3,r3,#1
        0x0000df3c:    ea500201    P...    ORRS     r2,r0,r1
        0x0000df40:    d1aa        ..      BNE      0xde98 ; ndigits_in_u64 + 20
        0x0000df42:    e8bd01f0    ....    POP      {r4-r8}
        0x0000df46:    4618        .F      MOV      r0,r3
        0x0000df48:    4770        pG      BX       lr
        0x0000df4a:    0000        ..      MOVS     r0,r0
    i.pcm_fft_print
    pcm_fft_print
        0x0000df4c:    2000        .       MOVS     r0,#0
        0x0000df4e:    1c40        @.      ADDS     r0,r0,#1
        0x0000df50:    b280        ..      UXTH     r0,r0
        0x0000df52:    f5b05ffa    ..._    CMP      r0,#0x1f40
        0x0000df56:    d3fa        ..      BCC      0xdf4e ; pcm_fft_print + 2
        0x0000df58:    a001        ..      ADR      r0,{pc}+8 ; 0xdf60
        0x0000df5a:    f7ffbac5    ....    B        am_util_stdio_printf ; 0xd4e8
    $d
        0x0000df5e:    0000        ..      DCW    0
        0x0000df60:    0a444e45    END.    DCD    172248645
        0x0000df64:    00000000    ....    DCD    0
    $t
    i.pdm_config_print
    pdm_config_print
        0x0000df68:    b570        p.      PUSH     {r4-r6,lr}
        0x0000df6a:    4d1b        .M      LDR      r5,[pc,#108] ; [0xdfd8] = 0x1000000c
        0x0000df6c:    7c28        (|      LDRB     r0,[r5,#0x10]
        0x0000df6e:    2808        .(      CMP      r0,#8
        0x0000df70:    d213        ..      BCS      0xdf9a ; pdm_config_print + 50
        0x0000df72:    e8dff000    ....    TBB      [pc,r0]
    $d
        0x0000df76:    0412        ..      DCW    1042
        0x0000df78:    0c0a0806    ....    DCD    201984006
        0x0000df7c:    100e        ..      DCW    4110
    $t
        0x0000df7e:    4c17        .L      LDR      r4,[pc,#92] ; [0xdfdc] = 0xb71b00
        0x0000df80:    e00c        ..      B        0xdf9c ; pdm_config_print + 52
        0x0000df82:    4c17        .L      LDR      r4,[pc,#92] ; [0xdfe0] = 0x5b8d80
        0x0000df84:    e00a        ..      B        0xdf9c ; pdm_config_print + 52
        0x0000df86:    4c17        .L      LDR      r4,[pc,#92] ; [0xdfe4] = 0x2dc6c0
        0x0000df88:    e008        ..      B        0xdf9c ; pdm_config_print + 52
        0x0000df8a:    4c17        .L      LDR      r4,[pc,#92] ; [0xdfe8] = 0x16e360
        0x0000df8c:    e006        ..      B        0xdf9c ; pdm_config_print + 52
        0x0000df8e:    4c17        .L      LDR      r4,[pc,#92] ; [0xdfec] = 0xb71b0
        0x0000df90:    e004        ..      B        0xdf9c ; pdm_config_print + 52
        0x0000df92:    4c17        .L      LDR      r4,[pc,#92] ; [0xdff0] = 0x5b8d8
        0x0000df94:    e002        ..      B        0xdf9c ; pdm_config_print + 52
        0x0000df96:    4c17        .L      LDR      r4,[pc,#92] ; [0xdff4] = 0x2da78
        0x0000df98:    e000        ..      B        0xdf9c ; pdm_config_print + 52
        0x0000df9a:    2400        .$      MOVS     r4,#0
        0x0000df9c:    a016        ..      ADR      r0,{pc}+0x5c ; 0xdff8
        0x0000df9e:    f7fffaa3    ....    BL       am_util_stdio_printf ; 0xd4e8
        0x0000dfa2:    4621        !F      MOV      r1,r4
        0x0000dfa4:    a017        ..      ADR      r0,{pc}+0x60 ; 0xe004
        0x0000dfa6:    f7fffa9f    ....    BL       am_util_stdio_printf ; 0xd4e8
        0x0000dfaa:    a01e        ..      ADR      r0,{pc}+0x7a ; 0xe024
        0x0000dfac:    6869        ih      LDR      r1,[r5,#4]
        0x0000dfae:    f7fffa9b    ....    BL       am_util_stdio_printf ; 0xd4e8
        0x0000dfb2:    f44f517a    O.zQ    MOV      r1,#0x3e80
        0x0000dfb6:    a023        #.      ADR      r0,{pc}+0x8e ; 0xe044
        0x0000dfb8:    f7fffa96    ....    BL       am_util_stdio_printf ; 0xd4e8
        0x0000dfbc:    f44f51fa    O..Q    MOV      r1,#0x1f40
        0x0000dfc0:    a028        (.      ADR      r0,{pc}+0xa4 ; 0xe064
        0x0000dfc2:    f7fffa91    ....    BL       am_util_stdio_printf ; 0xd4e8
        0x0000dfc6:    e8bd4070    ..p@    POP      {r4-r6,lr}
        0x0000dfca:    ed9f0b2f    ../.    VLDR     d0,[pc,#188] ; [0xe088] = 0
        0x0000dfce:    a030        0.      ADR      r0,{pc}+0xc2 ; 0xe090
        0x0000dfd0:    ec532b10    S..+    VMOV     r2,r3,d0
        0x0000dfd4:    f7ffba88    ....    B        am_util_stdio_printf ; 0xd4e8
    $d
        0x0000dfd8:    1000000c    ....    DCD    268435468
        0x0000dfdc:    00b71b00    ....    DCD    12000000
        0x0000dfe0:    005b8d80    ..[.    DCD    6000000
        0x0000dfe4:    002dc6c0    ..-.    DCD    3000000
        0x0000dfe8:    0016e360    `...    DCD    1500000
        0x0000dfec:    000b71b0    .q..    DCD    750000
        0x0000dff0:    0005b8d8    ....    DCD    375000
        0x0000dff4:    0002da78    x...    DCD    187000
        0x0000dff8:    74746553    Sett    DCD    1953785171
        0x0000dffc:    73676e69    ings    DCD    1936158313
        0x0000e000:    00000a3a    :...    DCD    2618
        0x0000e004:    204d4450    PDM     DCD    541934672
        0x0000e008:    636f6c43    Cloc    DCD    1668246595
        0x0000e00c:    4828206b    k (H    DCD    1210589291
        0x0000e010:    203a297a    z):     DCD    540682618
        0x0000e014:    20202020            DCD    538976288
        0x0000e018:    20202020            DCD    538976288
        0x0000e01c:    64323125    %12d    DCD    1681010981
        0x0000e020:    0000000a    ....    DCD    10
        0x0000e024:    69636544    Deci    DCD    1768121668
        0x0000e028:    6974616d    mati    DCD    1769234797
        0x0000e02c:    52206e6f    on R    DCD    1377857135
        0x0000e030:    3a657461    ate:    DCD    979727457
        0x0000e034:    20202020            DCD    538976288
        0x0000e038:    20202020            DCD    538976288
        0x0000e03c:    64323125    %12d    DCD    1681010981
        0x0000e040:    0000000a    ....    DCD    10
        0x0000e044:    65666645    Effe    DCD    1701209669
        0x0000e048:    76697463    ctiv    DCD    1986622563
        0x0000e04c:    61532065    e Sa    DCD    1632837733
        0x0000e050:    656c706d    mple    DCD    1701605485
        0x0000e054:    65724620     Fre    DCD    1701987872
        0x0000e058:    203a2e71    q.:     DCD    540683889
        0x0000e05c:    64323125    %12d    DCD    1681010981
        0x0000e060:    0000000a    ....    DCD    10
        0x0000e064:    20544646    FFT     DCD    542393926
        0x0000e068:    676e654c    Leng    DCD    1735288140
        0x0000e06c:    203a6874    th:     DCD    540698740
        0x0000e070:    20202020            DCD    538976288
        0x0000e074:    20202020            DCD    538976288
        0x0000e078:    20202020            DCD    538976288
        0x0000e07c:    64323125    %12d    DCD    1681010981
        0x0000e080:    00000a0a    ....    DCD    2570
        0x0000e084:    00000000    ....    DCD    0
        0x0000e088:    00000000    ....    DCD    0
        0x0000e08c:    3fc00000    ...?    DCD    1069547520
        0x0000e090:    20544646    FFT     DCD    542393926
        0x0000e094:    6f736552    Reso    DCD    1869833554
        0x0000e098:    6974756c    luti    DCD    1769239916
        0x0000e09c:    203a6e6f    on:     DCD    540700271
        0x0000e0a0:    2e353125    %15.    DCD    775237925
        0x0000e0a4:    48206633    3f H    DCD    1210082867
        0x0000e0a8:    00000a7a    z...    DCD    2682
    $t
    i.uint64_to_str
    uint64_to_str
        0x0000e0ac:    e92d07f0    -...    PUSH     {r4-r10}
        0x0000e0b0:    b087        ..      SUB      sp,sp,#0x1c
        0x0000e0b2:    f04f0c00    O...    MOV      r12,#0
        0x0000e0b6:    4666        fF      MOV      r6,r12
        0x0000e0b8:    466d        mF      MOV      r5,sp
        0x0000e0ba:    2900        .)      CMP      r1,#0
        0x0000e0bc:    d03f        ?.      BEQ      0xe13e ; uint64_to_str + 146
        0x0000e0be:    084f        O.      LSRS     r7,r1,#1
        0x0000e0c0:    ea4f0390    O...    LSR      r3,r0,#2
        0x0000e0c4:    ea4f0430    O.0.    RRX      r4,r0
        0x0000e0c8:    ea437381    C..s    ORR      r3,r3,r1,LSL #30
        0x0000e0cc:    18e4        ..      ADDS     r4,r4,r3
        0x0000e0ce:    eb470391    G...    ADC      r3,r7,r1,LSR #2
        0x0000e0d2:    ea4f1814    O...    LSR      r8,r4,#4
        0x0000e0d6:    ea487803    H..x    ORR      r8,r8,r3,LSL #28
        0x0000e0da:    eb180404    ....    ADDS     r4,r8,r4
        0x0000e0de:    eb431313    C...    ADC      r3,r3,r3,LSR #4
        0x0000e0e2:    ea4f2814    O..(    LSR      r8,r4,#8
        0x0000e0e6:    ea486803    H..h    ORR      r8,r8,r3,LSL #24
        0x0000e0ea:    eb180404    ....    ADDS     r4,r8,r4
        0x0000e0ee:    eb432313    C..#    ADC      r3,r3,r3,LSR #8
        0x0000e0f2:    ea4f4814    O..H    LSR      r8,r4,#16
        0x0000e0f6:    ea484803    H..H    ORR      r8,r8,r3,LSL #16
        0x0000e0fa:    eb180404    ....    ADDS     r4,r8,r4
        0x0000e0fe:    eb434313    C..C    ADC      r3,r3,r3,LSR #16
        0x0000e102:    18e7        ..      ADDS     r7,r4,r3
        0x0000e104:    eb430406    C...    ADC      r4,r3,r6
        0x0000e108:    08ff        ..      LSRS     r7,r7,#3
        0x0000e10a:    ea477344    G.Ds    ORR      r3,r7,r4,LSL #29
        0x0000e10e:    270a        .'      MOVS     r7,#0xa
        0x0000e110:    fba39a07    ....    UMULL    r9,r10,r3,r7
        0x0000e114:    08e4        ..      LSRS     r4,r4,#3
        0x0000e116:    fb04a707    ....    MLA      r7,r4,r7,r10
        0x0000e11a:    f04f0800    O...    MOV      r8,#0
        0x0000e11e:    fb037808    ...x    MLA      r8,r3,r8,r7
        0x0000e122:    ebb00709    ....    SUBS     r7,r0,r9
        0x0000e126:    eb610108    a...    SBC      r1,r1,r8
        0x0000e12a:    1dbf        ..      ADDS     r7,r7,#6
        0x0000e12c:    f1410100    A...    ADC      r1,r1,#0
        0x0000e130:    093f        ?.      LSRS     r7,r7,#4
        0x0000e132:    ea477701    G..w    ORR      r7,r7,r1,LSL #28
        0x0000e136:    18fb        ..      ADDS     r3,r7,r3
        0x0000e138:    eb441411    D...    ADC      r4,r4,r1,LSR #4
        0x0000e13c:    e012        ..      B        0xe164 ; uint64_to_str + 184
        0x0000e13e:    0843        C.      LSRS     r3,r0,#1
        0x0000e140:    eb030390    ....    ADD      r3,r3,r0,LSR #2
        0x0000e144:    eb031313    ....    ADD      r3,r3,r3,LSR #4
        0x0000e148:    eb032313    ...#    ADD      r3,r3,r3,LSR #8
        0x0000e14c:    eb034313    ...C    ADD      r3,r3,r3,LSR #16
        0x0000e150:    08db        ..      LSRS     r3,r3,#3
        0x0000e152:    425c        \B      RSBS     r4,r3,#0
        0x0000e154:    eb040484    ....    ADD      r4,r4,r4,LSL #2
        0x0000e158:    eb000144    ..D.    ADD      r1,r0,r4,LSL #1
        0x0000e15c:    1d89        ..      ADDS     r1,r1,#6
        0x0000e15e:    eb031311    ....    ADD      r3,r3,r1,LSR #4
        0x0000e162:    4634        4F      MOV      r4,r6
        0x0000e164:    4621        !F      MOV      r1,r4
        0x0000e166:    240a        .$      MOVS     r4,#0xa
        0x0000e168:    fba34704    ...G    UMULL    r4,r7,r3,r4
        0x0000e16c:    1b00        ..      SUBS     r0,r0,r4
        0x0000e16e:    f1000030    ..0.    ADD      r0,r0,#0x30
        0x0000e172:    f805000c    ....    STRB     r0,[r5,r12]
        0x0000e176:    4618        .F      MOV      r0,r3
        0x0000e178:    f10c0c01    ....    ADD      r12,r12,#1
        0x0000e17c:    430b        .C      ORRS     r3,r3,r1
        0x0000e17e:    d19c        ..      BNE      0xe0ba ; uint64_to_str + 14
        0x0000e180:    4660        `F      MOV      r0,r12
        0x0000e182:    2a00        .*      CMP      r2,#0
        0x0000e184:    bf02        ..      ITTT     EQ
        0x0000e186:    b007        ..      ADDEQ    sp,sp,#0x1c
        0x0000e188:    e8bd07f0    ....    POPEQ    {r4-r10}
        0x0000e18c:    4770        pG      BXEQ     lr
        0x0000e18e:    1e47        G.      SUBS     r7,r0,#1
        0x0000e190:    f1b00c00    ....    SUBS     r12,r0,#0
        0x0000e194:    dd18        ..      BLE      0xe1c8 ; uint64_to_str + 284
        0x0000e196:    19e9        ..      ADDS     r1,r5,r7
        0x0000e198:    1c4b        K.      ADDS     r3,r1,#1
        0x0000e19a:    1e51        Q.      SUBS     r1,r2,#1
        0x0000e19c:    f0170f01    ....    TST      r7,#1
        0x0000e1a0:    d103        ..      BNE      0xe1aa ; uint64_to_str + 254
        0x0000e1a2:    f8134d01    ...M    LDRB     r4,[r3,#-1]!
        0x0000e1a6:    f8014f01    ...O    STRB     r4,[r1,#1]!
        0x0000e1aa:    ea5f046c    _.l.    ASRS     r4,r12,#1
        0x0000e1ae:    d009        ..      BEQ      0xe1c4 ; uint64_to_str + 280
        0x0000e1b0:    f813cc01    ....    LDRB     r12,[r3,#-1]
        0x0000e1b4:    f881c001    ....    STRB     r12,[r1,#1]
        0x0000e1b8:    f813cd02    ....    LDRB     r12,[r3,#-2]!
        0x0000e1bc:    f801cf02    ....    STRB     r12,[r1,#2]!
        0x0000e1c0:    1e64        d.      SUBS     r4,r4,#1
        0x0000e1c2:    d1f5        ..      BNE      0xe1b0 ; uint64_to_str + 260
        0x0000e1c4:    19d1        ..      ADDS     r1,r2,r7
        0x0000e1c6:    1c4a        J.      ADDS     r2,r1,#1
        0x0000e1c8:    7016        .p      STRB     r6,[r2,#0]
        0x0000e1ca:    b007        ..      ADD      sp,sp,#0x1c
        0x0000e1cc:    e8bd07f0    ....    POP      {r4-r10}
        0x0000e1d0:    4770        pG      BX       lr
        0x0000e1d2:    0000        ..      MOVS     r0,r0
    x$fpl$d2f
    $v0
    __aeabi_d2f
    _d2f
        0x0000e1d4:    f0214200    !..B    BIC      r2,r1,#0x80000000
        0x0000e1d8:    f1a25260    ..`R    SUB      r2,r2,#0x38000000
        0x0000e1dc:    f5b21f80    ....    CMP      r2,#0x100000
        0x0000e1e0:    f0014300    ...C    AND      r3,r1,#0x80000000
        0x0000e1e4:    bf28        (.      IT       CS
        0x0000e1e6:    f1d26c7f    ...l    RSBSCS   r12,r2,#0xff00000
        0x0000e1ea:    d90b        ..      BLS      0xe204 ; __aeabi_d2f + 48
        0x0000e1ec:    ea5f1c00    _...    LSLS     r12,r0,#4
        0x0000e1f0:    ea4302c2    C...    ORR      r2,r3,r2,LSL #3
        0x0000e1f4:    eb427050    B.Pp    ADC      r0,r2,r0,LSR #29
        0x0000e1f8:    bf18        ..      IT       NE
        0x0000e1fa:    4770        pG      BXNE     lr
        0x0000e1fc:    bf28        (.      IT       CS
        0x0000e1fe:    f0200001     ...    BICCS    r0,r0,#1
        0x0000e202:    4770        pG      BX       lr
        0x0000e204:    f5b21f80    ....    CMP      r2,#0x100000
        0x0000e208:    bfbc        ..      ITT      LT
        0x0000e20a:    4618        .F      MOVLT    r0,r3
        0x0000e20c:    4770        pG      BXLT     lr
        0x0000e20e:    ea4f0c41    O.A.    LSL      r12,r1,#1
        0x0000e212:    f51c1f00    ....    CMN      r12,#0x200000
        0x0000e216:    d202        ..      BCS      0xe21e ; __aeabi_d2f + 74
        0x0000e218:    4608        .F      MOV      r0,r1
        0x0000e21a:    f000b85f    .._.    B.W      __fpl_fretinf ; 0xe2dc
        0x0000e21e:    b570        p.      PUSH     {r4-r6,lr}
        0x0000e220:    f000f809    ....    BL       __fpl_dnaninf ; 0xe236
    $d
        0x0000e224:    89000000    ....    DCD    2298478592
    $t
        0x0000e228:    f7ffbff6    ....    B.W      0xe218 ; __aeabi_d2f + 68
        0x0000e22c:    f04f4000    O..@    MOV      r0,#0x80000000
        0x0000e230:    f5a00080    ....    SUB      r0,r0,#0x400000
        0x0000e234:    4770        pG      BX       lr
    x$fpl$dnaninf
    $v0
    __fpl_dnaninf
        0x0000e236:    f10e0e02    ....    ADD      lr,lr,#2
        0x0000e23a:    f02e0e03    ....    BIC      lr,lr,#3
        0x0000e23e:    f85e6b04    ^..k    LDR      r6,[lr],#4
        0x0000e242:    4236        6B      TST      r6,r6
        0x0000e244:    d405        ..      BMI      0xe252 ; __fpl_dnaninf + 28
        0x0000e246:    2a01        .*      CMP      r2,#1
        0x0000e248:    eb430503    C...    ADC      r5,r3,r3
        0x0000e24c:    f5151f00    ....    CMN      r5,#0x200000
        0x0000e250:    d812        ..      BHI      0xe278 ; __fpl_dnaninf + 66
        0x0000e252:    2801        .(      CMP      r0,#1
        0x0000e254:    eb410c01    A...    ADC      r12,r1,r1
        0x0000e258:    f51c1f00    ....    CMN      r12,#0x200000
        0x0000e25c:    d80c        ..      BHI      0xe278 ; __fpl_dnaninf + 66
        0x0000e25e:    d10e        ..      BNE      0xe27e ; __fpl_dnaninf + 72
        0x0000e260:    ea4f7cd1    O..|    LSR      r12,r1,#31
        0x0000e264:    f5151f00    ....    CMN      r5,#0x200000
        0x0000e268:    eb0c0c4c    ..L.    ADD      r12,r12,r12,LSL #1
        0x0000e26c:    f10c0c02    ....    ADD      r12,r12,#2
        0x0000e270:    bf08        ..      IT       EQ
        0x0000e272:    eb4c7cd3    L..|    ADCEQ    r12,r12,r3,LSR #31
        0x0000e276:    e004        ..      B        0xe282 ; __fpl_dnaninf + 76
        0x0000e278:    f04f0c08    O...    MOV      r12,#8
        0x0000e27c:    e001        ..      B        0xe282 ; __fpl_dnaninf + 76
        0x0000e27e:    ea4f7cd3    O..|    LSR      r12,r3,#31
        0x0000e282:    eb0c054c    ..L.    ADD      r5,r12,r12,LSL #1
        0x0000e286:    fa26f605    &...    LSR      r6,r6,r5
        0x0000e28a:    f0060607    ....    AND      r6,r6,#7
        0x0000e28e:    f1b60c04    ....    SUBS     r12,r6,#4
        0x0000e292:    d206        ..      BCS      0xe2a2 ; __fpl_dnaninf + 108
        0x0000e294:    eb0e0c86    ....    ADD      r12,lr,r6,LSL #2
        0x0000e298:    e8bd4070    ..p@    POP      {r4-r6,lr}
        0x0000e29c:    f04c0c01    L...    ORR      r12,r12,#1
        0x0000e2a0:    4760        `G      BX       r12
        0x0000e2a2:    e8dff00c    ....    TBB      [pc,r12]
    $d
        0x0000e2a6:    0b09        ..      DCW    2825
        0x0000e2a8:    0202        ..      DCW    514
    $t
        0x0000e2aa:    f04f4100    O..A    MOV      r1,#0x80000000
        0x0000e2ae:    f04f0000    O...    MOV      r0,#0
        0x0000e2b2:    f5a12100    ...!    SUB      r1,r1,#0x80000
        0x0000e2b6:    bd70        p.      POP      {r4-r6,pc}
        0x0000e2b8:    4619        .F      MOV      r1,r3
        0x0000e2ba:    4610        .F      MOV      r0,r2
        0x0000e2bc:    2801        .(      CMP      r0,#1
        0x0000e2be:    eb510401    Q...    ADCS     r4,r1,r1
        0x0000e2c2:    bf18        ..      IT       NE
        0x0000e2c4:    f5d41400    ....    RSBSNE   r4,r4,#0x200000
        0x0000e2c8:    bf84        ..      ITT      HI
        0x0000e2ca:    2000        .       MOVHI    r0,#0
        0x0000e2cc:    f0014100    ...A    ANDHI    r1,r1,#0x80000000
        0x0000e2d0:    bd70        p.      POP      {r4-r6,pc}
    x$fpl$fpinit
    $v0
    _fp_init
        0x0000e2d2:    f04f7040    O.@p    MOV      r0,#0x3000000
        0x0000e2d6:    eee10a10    ....    VMSR     FPSCR,r0
    __fplib_config_fpu_vfp
    __fplib_config_pureend_doubles
        0x0000e2da:    4770        pG      BX       lr
    x$fpl$fretinf
    $v0
    __fpl_fretinf
        0x0000e2dc:    21ff        .!      MOVS     r1,#0xff
        0x0000e2de:    ea4150d0    A..P    ORR      r0,r1,r0,LSR #23
        0x0000e2e2:    05c0        ..      LSLS     r0,r0,#23
        0x0000e2e4:    4770        pG      BX       lr
    $d.realdata
    .constdata
    x$fpl$usenofp
    __I$use$fp
    am_hal_cachectrl_defaults
        0x0000e2e6:    0308        ..      DCW    776
        0x0000e2e8:    00000000    ....    DCD    0
    .constdata
    g_AM_HAL_GPIO_DISABLE
        0x0000e2ec:    00000003    ....    DCD    3
    g_ui8Inpen
        0x0000e2f0:    62272323    ##'b    DCD    1646732067
        0x0000e2f4:    108703a1    ....    DCD    277283745
        0x0000e2f8:    e1005303    .S..    DCD    3774894851
        0x0000e2fc:    55418151    Q.AU    DCD    1430356305
        0x0000e300:    4080c405    ...@    DCD    1082180613
        0x0000e304:    4140b101    ..@A    DCD    1094758657
        0x0000e308:    31a03114    .1.1    DCD    832581908
        0x0000e30c:    1180f100    ....    DCD    293662976
        0x0000e310:    11c12191    .!..    DCD    297869713
        0x0000e314:    304511e5    ..E0    DCD    809832933
        0x0000e318:    31300037    7.01    DCD    825229367
        0x0000e31c:    40007100    .q.@    DCD    1073770752
        0x0000e320:    3130        01      DCW    12592
    g_ui8Bit76Capabilities
        0x0000e322:    0101        ..      DCW    257
        0x0000e324:    01800280    ....    DCD    25166464
        0x0000e328:    01018001    ....    DCD    16875521
        0x0000e32c:    80808080    ....    DCD    2155905152
        0x0000e330:    80808080    ....    DCD    2155905152
        0x0000e334:    80088080    ....    DCD    2148040832
        0x0000e338:    01808080    ....    DCD    25198720
        0x0000e33c:    80800180    ....    DCD    2155872640
        0x0000e340:    80808080    ....    DCD    2155905152
        0x0000e344:    04028080    ....    DCD    67272832
        0x0000e348:    04010180    ....    DCD    67174784
        0x0000e34c:    80800101    ....    DCD    2155872513
        0x0000e350:    01018080    ....    DCD    16875648
    g_ui8nCEpins
        0x0000e354:    02070707    ....    DCD    34014983
        0x0000e358:    00080802    ....    DCD    526338
        0x0000e35c:    01020202    ....    DCD    16908802
        0x0000e360:    01010101    ....    DCD    16843009
        0x0000e364:    01010101    ....    DCD    16843009
        0x0000e368:    01010101    ....    DCD    16843009
        0x0000e36c:    01010101    ....    DCD    16843009
        0x0000e370:    01010101    ....    DCD    16843009
        0x0000e374:    01010101    ....    DCD    16843009
        0x0000e378:    08010101    ....    DCD    134283521
        0x0000e37c:    01010008    ....    DCD    16842760
        0x0000e380:    01010101    ....    DCD    16843009
        0x0000e384:    0101        ..      DCW    257
    g_ui8NCEtable
        0x0000e386:    4232        2B      DCW    16946
        0x0000e388:    12021352    R...    DCD    302125906
        0x0000e38c:    43336022    "`3C    DCD    1127440418
        0x0000e390:    40302153    S!0@    DCD    1076896083
        0x0000e394:    41312050    P 1A    DCD    1093738576
        0x0000e398:    ffff1151    Q...    DCD    4294906193
        0x0000e39c:    ffffffff    ....    DCD    4294967295
        0x0000e3a0:    4131ffff    ..1A    DCD    1093795839
        0x0000e3a4:    40306051    Q`0@    DCD    1076912209
        0x0000e3a8:    43330050    P.3C    DCD    1127415888
        0x0000e3ac:    42322353    S#2B    DCD    1110582099
        0x0000e3b0:    10006052    R`..    DCD    268460114
        0x0000e3b4:    40303020     00@    DCD    1076899872
        0x0000e3b8:    41316150    Pa1A    DCD    1093755216
        0x0000e3bc:    12020151    Q...    DCD    302121297
        0x0000e3c0:    13034222    "B..    DCD    318980642
        0x0000e3c4:    10006023    #`..    DCD    268460067
        0x0000e3c8:    11015020     P..    DCD    285298720
        0x0000e3cc:    12024121    !A..    DCD    302137633
        0x0000e3d0:    13033222    "2..    DCD    318976546
        0x0000e3d4:    41316033    3`1A    DCD    1093754931
        0x0000e3d8:    42322151    Q!2B    DCD    1110581585
        0x0000e3dc:    43332252    R"3C    DCD    1127424594
        0x0000e3e0:    10000353    S...    DCD    268436307
        0x0000e3e4:    11014020     @..    DCD    285294624
        0x0000e3e8:    42325121    !Q2B    DCD    1110593825
        0x0000e3ec:    43330252    R.3C    DCD    1127416402
        0x0000e3f0:    40301353    S.0@    DCD    1076892499
        0x0000e3f4:    41311050    P.1A    DCD    1093734480
        0x0000e3f8:    42326051    Q`2B    DCD    1110597713
        0x0000e3fc:    43331252    R.3C    DCD    1127420498
        0x0000e400:    10000353    S...    DCD    268436307
        0x0000e404:    11014020     @..    DCD    285294624
        0x0000e408:    12026121    !a..    DCD    302145825
        0x0000e40c:    13035222    "R..    DCD    318984738
        0x0000e410:    10003323    #3..    DCD    268448547
        0x0000e414:    41313020     01A    DCD    1093742624
        0x0000e418:    42326151    Qa2B    DCD    1110597969
        0x0000e41c:    13030252    R...    DCD    318964306
        0x0000e420:    ffff5333    3S..    DCD    4294923059
        0x0000e424:    ffffffff    ....    DCD    4294967295
        0x0000e428:    1101ffff    ....    DCD    285343743
        0x0000e42c:    10006121    !a..    DCD    268460321
        0x0000e430:    11015020     P..    DCD    285298720
        0x0000e434:    12026121    !a..    DCD    302145825
        0x0000e438:    43335222    "R3C    DCD    1127436834
        0x0000e43c:    40301353    S.0@    DCD    1076892499
        0x0000e440:    11016150    Pa..    DCD    285303120
        0x0000e444:    12023121    !1..    DCD    302133537
        0x0000e448:    13033222    "2..    DCD    318976546
        0x0000e44c:    00004323    #C..    DCD    17187
    .constdata
    g_AM_HAL_GPIO_TRISTATE
        0x0000e450:    00000c03    ....    DCD    3075
    .constdata
    g_AM_HAL_GPIO_OUTPUT
        0x0000e454:    00000403    ....    DCD    1027
    .constdata
    g_am_hal_mcuctrl_flash_size
        0x0000e458:    00004000    .@..    DCD    16384
        0x0000e45c:    00008000    ....    DCD    32768
        0x0000e460:    00010000    ....    DCD    65536
        0x0000e464:    00020000    ....    DCD    131072
        0x0000e468:    00040000    ....    DCD    262144
        0x0000e46c:    00080000    ....    DCD    524288
        0x0000e470:    00100000    ....    DCD    1048576
        0x0000e474:    00200000    .. .    DCD    2097152
        0x0000e478:    00180000    ....    DCD    1572864
        0x0000e47c:    00000000    ....    DCD    0
        0x0000e480:    00000000    ....    DCD    0
        0x0000e484:    00000000    ....    DCD    0
        0x0000e488:    00000000    ....    DCD    0
        0x0000e48c:    00000000    ....    DCD    0
        0x0000e490:    00000000    ....    DCD    0
        0x0000e494:    00000000    ....    DCD    0
    g_am_hal_mcuctrl_sram_size
        0x0000e498:    00004000    .@..    DCD    16384
        0x0000e49c:    00008000    ....    DCD    32768
        0x0000e4a0:    00010000    ....    DCD    65536
        0x0000e4a4:    00020000    ....    DCD    131072
        0x0000e4a8:    00040000    ....    DCD    262144
        0x0000e4ac:    00080000    ....    DCD    524288
        0x0000e4b0:    00100000    ....    DCD    1048576
        0x0000e4b4:    00060000    ....    DCD    393216
        0x0000e4b8:    000c0000    ....    DCD    786432
        0x0000e4bc:    00000000    ....    DCD    0
        0x0000e4c0:    00000000    ....    DCD    0
        0x0000e4c4:    00000000    ....    DCD    0
        0x0000e4c8:    00000000    ....    DCD    0
        0x0000e4cc:    00000000    ....    DCD    0
        0x0000e4d0:    00000000    ....    DCD    0
        0x0000e4d4:    00000000    ....    DCD    0
    .constdata
    g_AM_BSP_GPIO_ITM_SWO
        0x0000e4d8:    00000002    ....    DCD    2
    .constdata
    am_hal_pwrctrl_peripheral_control
        0x0000e4dc:    00000000    ....    DCD    0
        0x0000e4e0:    00000000    ....    DCD    0
        0x0000e4e4:    00000000    ....    DCD    0
        0x0000e4e8:    00000001    ....    DCD    1
        0x0000e4ec:    00000004    ....    DCD    4
        0x0000e4f0:    00000004    ....    DCD    4
        0x0000e4f4:    00000002    ....    DCD    2
        0x0000e4f8:    00000008    ....    DCD    8
        0x0000e4fc:    00000008    ....    DCD    8
        0x0000e500:    00000004    ....    DCD    4
        0x0000e504:    00000008    ....    DCD    8
        0x0000e508:    00000008    ....    DCD    8
        0x0000e50c:    00000008    ....    DCD    8
        0x0000e510:    00000008    ....    DCD    8
        0x0000e514:    00000008    ....    DCD    8
        0x0000e518:    00000010    ....    DCD    16
        0x0000e51c:    00000010    ....    DCD    16
        0x0000e520:    00000010    ....    DCD    16
        0x0000e524:    00000020     ...    DCD    32
        0x0000e528:    00000010    ....    DCD    16
        0x0000e52c:    00000010    ....    DCD    16
        0x0000e530:    00000040    @...    DCD    64
        0x0000e534:    00000010    ....    DCD    16
        0x0000e538:    00000010    ....    DCD    16
        0x0000e53c:    00000080    ....    DCD    128
        0x0000e540:    00000004    ....    DCD    4
        0x0000e544:    00000004    ....    DCD    4
        0x0000e548:    00000100    ....    DCD    256
        0x0000e54c:    00000004    ....    DCD    4
        0x0000e550:    00000004    ....    DCD    4
        0x0000e554:    00000200    ....    DCD    512
        0x0000e558:    00000020     ...    DCD    32
        0x0000e55c:    00000020     ...    DCD    32
        0x0000e560:    00000400    ....    DCD    1024
        0x0000e564:    00000004    ....    DCD    4
        0x0000e568:    00000004    ....    DCD    4
        0x0000e56c:    00000800    ....    DCD    2048
        0x0000e570:    00000040    @...    DCD    64
        0x0000e574:    00000040    @...    DCD    64
        0x0000e578:    00001000    ....    DCD    4096
        0x0000e57c:    00000080    ....    DCD    128
        0x0000e580:    00000080    ....    DCD    128
        0x0000e584:    00002000    . ..    DCD    8192
        0x0000e588:    00000100    ....    DCD    256
        0x0000e58c:    00000100    ....    DCD    256
    am_hal_pwrctrl_memory_control
        0x0000e590:    00000000    ....    DCD    0
        0x0000e594:    00000000    ....    DCD    0
        0x0000e598:    00000000    ....    DCD    0
        0x0000e59c:    00000000    ....    DCD    0
        0x0000e5a0:    00000000    ....    DCD    0
        0x0000e5a4:    00000000    ....    DCD    0
        0x0000e5a8:    00000001    ....    DCD    1
        0x0000e5ac:    00000001    ....    DCD    1
        0x0000e5b0:    00000001    ....    DCD    1
        0x0000e5b4:    00001fff    ....    DCD    8191
        0x0000e5b8:    00001fff    ....    DCD    8191
        0x0000e5bc:    00000001    ....    DCD    1
        0x0000e5c0:    00000003    ....    DCD    3
        0x0000e5c4:    00000003    ....    DCD    3
        0x0000e5c8:    00000003    ....    DCD    3
        0x0000e5cc:    00001fff    ....    DCD    8191
        0x0000e5d0:    00001fff    ....    DCD    8191
        0x0000e5d4:    00000003    ....    DCD    3
        0x0000e5d8:    00000007    ....    DCD    7
        0x0000e5dc:    00000007    ....    DCD    7
        0x0000e5e0:    00000007    ....    DCD    7
        0x0000e5e4:    00001fff    ....    DCD    8191
        0x0000e5e8:    00001fff    ....    DCD    8191
        0x0000e5ec:    00000007    ....    DCD    7
        0x0000e5f0:    0000000f    ....    DCD    15
        0x0000e5f4:    0000000f    ....    DCD    15
        0x0000e5f8:    0000000f    ....    DCD    15
        0x0000e5fc:    00001fff    ....    DCD    8191
        0x0000e600:    00001fff    ....    DCD    8191
        0x0000e604:    0000000f    ....    DCD    15
        0x0000e608:    0000001f    ....    DCD    31
        0x0000e60c:    0000001f    ....    DCD    31
        0x0000e610:    0000001f    ....    DCD    31
        0x0000e614:    00001fff    ....    DCD    8191
        0x0000e618:    00001fff    ....    DCD    8191
        0x0000e61c:    0000001f    ....    DCD    31
        0x0000e620:    0000003f    ?...    DCD    63
        0x0000e624:    0000003f    ?...    DCD    63
        0x0000e628:    0000003f    ?...    DCD    63
        0x0000e62c:    00001fff    ....    DCD    8191
        0x0000e630:    00001fff    ....    DCD    8191
        0x0000e634:    0000003f    ?...    DCD    63
        0x0000e638:    0000007f    ....    DCD    127
        0x0000e63c:    0000007f    ....    DCD    127
        0x0000e640:    0000007f    ....    DCD    127
        0x0000e644:    00001fff    ....    DCD    8191
        0x0000e648:    00001fff    ....    DCD    8191
        0x0000e64c:    0000007f    ....    DCD    127
        0x0000e650:    000000ff    ....    DCD    255
        0x0000e654:    000000ff    ....    DCD    255
        0x0000e658:    000000ff    ....    DCD    255
        0x0000e65c:    00001fff    ....    DCD    8191
        0x0000e660:    00001fff    ....    DCD    8191
        0x0000e664:    000000ff    ....    DCD    255
        0x0000e668:    000001ff    ....    DCD    511
        0x0000e66c:    000001ff    ....    DCD    511
        0x0000e670:    000001ff    ....    DCD    511
        0x0000e674:    00001fff    ....    DCD    8191
        0x0000e678:    00001fff    ....    DCD    8191
        0x0000e67c:    000001ff    ....    DCD    511
        0x0000e680:    000003ff    ....    DCD    1023
        0x0000e684:    000003ff    ....    DCD    1023
        0x0000e688:    000003ff    ....    DCD    1023
        0x0000e68c:    00001fff    ....    DCD    8191
        0x0000e690:    00001fff    ....    DCD    8191
        0x0000e694:    000003ff    ....    DCD    1023
        0x0000e698:    000007ff    ....    DCD    2047
        0x0000e69c:    000007ff    ....    DCD    2047
        0x0000e6a0:    000007ff    ....    DCD    2047
        0x0000e6a4:    00001fff    ....    DCD    8191
        0x0000e6a8:    00001fff    ....    DCD    8191
        0x0000e6ac:    000007ff    ....    DCD    2047
        0x0000e6b0:    00000fff    ....    DCD    4095
        0x0000e6b4:    00000fff    ....    DCD    4095
        0x0000e6b8:    00000fff    ....    DCD    4095
        0x0000e6bc:    00001fff    ....    DCD    8191
        0x0000e6c0:    00001fff    ....    DCD    8191
        0x0000e6c4:    00000fff    ....    DCD    4095
        0x0000e6c8:    00001fff    ....    DCD    8191
        0x0000e6cc:    00001fff    ....    DCD    8191
        0x0000e6d0:    00001fff    ....    DCD    8191
        0x0000e6d4:    00001fff    ....    DCD    8191
        0x0000e6d8:    00001fff    ....    DCD    8191
        0x0000e6dc:    00001fff    ....    DCD    8191
        0x0000e6e0:    00002000    . ..    DCD    8192
        0x0000e6e4:    00002000    . ..    DCD    8192
        0x0000e6e8:    00002000    . ..    DCD    8192
        0x0000e6ec:    00006000    .`..    DCD    24576
        0x0000e6f0:    00006000    .`..    DCD    24576
        0x0000e6f4:    00002000    . ..    DCD    8192
        0x0000e6f8:    00006000    .`..    DCD    24576
        0x0000e6fc:    00006000    .`..    DCD    24576
        0x0000e700:    00006000    .`..    DCD    24576
        0x0000e704:    00006000    .`..    DCD    24576
        0x0000e708:    00006000    .`..    DCD    24576
        0x0000e70c:    00006000    .`..    DCD    24576
        0x0000e710:    c0000000    ....    DCD    3221225472
        0x0000e714:    00000000    ....    DCD    0
        0x0000e718:    c0000000    ....    DCD    3221225472
        0x0000e71c:    c0000000    ....    DCD    3221225472
        0x0000e720:    00000000    ....    DCD    0
        0x0000e724:    80000000    ....    DCD    2147483648
        0x0000e728:    c0007fff    ....    DCD    3221258239
        0x0000e72c:    00007fff    ....    DCD    32767
        0x0000e730:    c0007fff    ....    DCD    3221258239
        0x0000e734:    c0007fff    ....    DCD    3221258239
        0x0000e738:    00007fff    ....    DCD    32767
        0x0000e73c:    80007fff    ....    DCD    2147516415
    Region$$Table$$Base
        0x0000e740:    0000e760    `...    DCD    59232
        0x0000e744:    10000000    ....    DCD    268435456
        0x0000e748:    00000098    ....    DCD    152
        0x0000e74c:    0000c174    t...    DCD    49524
        0x0000e750:    0000e7f8    ....    DCD    59384
        0x0000e754:    10000098    ....    DCD    268435608
        0x0000e758:    00009670    p...    DCD    38512
        0x0000e75c:    0000c190    ....    DCD    49552
    Region$$Table$$Limit

** Section #2 'SRAM' (SHT_PROGBITS) [SHF_ALLOC + SHF_WRITE]
    Size   : 152 bytes (alignment 4)
    Address: 0x10000000

    0x10000000:   00 00 00 00 00 00 00 00 00 00 00 00 00 0b 0b 00    ................
    0x10000010:   30 00 00 00 00 00 00 00 0b 00 00 00 04 00 00 00    0...............
    0x10000020:   01 02 00 00 01 00 00 00 00 00 00 00 00 00 00 00    ................
    0x10000030:   00 00 00 00 00 00 00 00 00 00 00 00 00 00 00 00    ................
    0x10000040:   0a 00 00 00 03 00 00 00 1e 00 00 00 03 00 00 00    ................
    0x10000050:   0f 00 00 00 03 00 00 00 0e 00 00 00 03 00 00 00    ................
    0x10000060:   11 00 00 00 03 00 00 00 00 c2 01 00 60 00 00 00    ............`...
    0x10000070:   00 00 00 00 00 00 00 00 00 00 00 00 12 00 00 00    ................
    0x10000080:   98 8e 00 10 00 04 00 00 98 92 00 10 00 04 00 00    ................
    0x10000090:   00 00 00 00 00 00 00 00                            ........


** Section #3 'SRAM' (SHT_NOBITS) [SHF_ALLOC + SHF_WRITE]
    Size   : 38512 bytes (alignment 8)
    Address: 0x10000098


** Section #4 '.debug_abbrev' (SHT_PROGBITS)
    Size   : 1476 bytes


** Section #5 '.debug_frame' (SHT_PROGBITS)
    Size   : 2652 bytes


** Section #6 '.debug_info' (SHT_PROGBITS)
    Size   : 279560 bytes


** Section #7 '.debug_line' (SHT_PROGBITS)
    Size   : 6952 bytes


** Section #8 '.debug_loc' (SHT_PROGBITS)
    Size   : 3408 bytes


** Section #9 '.debug_macinfo' (SHT_PROGBITS)
    Size   : 223020 bytes


** Section #10 '.debug_pubnames' (SHT_PROGBITS)
    Size   : 1268 bytes


** Section #11 '.symtab' (SHT_SYMTAB)
    Size   : 8432 bytes (alignment 4)
    String table #12 '.strtab'
    Last local symbol no. 344

    Symbol table .symtab (526 symbols, 344 local)

      #  Symbol Name                Value      Bind  Sec  Type  Vis  Size
    ========================================================================

      1  $d                         0x0000c000   Lc    1   --   De 
      2  $t                         0x0000c100   Lc    1   --   De 
      3  $d                         0x0000c132   Lc    1   --   De 
      4  $t                         0x0000c138   Lc    1   --   De 
      5  $d                         0x0000c16c   Lc    1   --   De 
      6  $t                         0x0000c174   Lc    1   --   De 
      7  $d                         0x0000c21e   Lc    1   --   De 
      8  $t                         0x0000c22c   Lc    1   --   De 
      9  $d                         0x0000c294   Lc    1   --   De 
     10  $t                         0x0000c298   Lc    1   --   De 
     11  $d                         0x0000c2a0   Lc    1   --   De 
     12  $t                         0x0000c2a4   Lc    1   --   De 
     13  $d                         0x0000c2d4   Lc    1   --   De 
     14  $t                         0x0000c2e4   Lc    1   --   De 
     15  $d                         0x0000c364   Lc    1   --   De 
     16  $t                         0x0000c36c   Lc    1   --   De 
     17  $d                         0x0000c486   Lc    1   --   De 
     18  $t                         0x0000c48c   Lc    1   --   De 
     19  $d                         0x0000c49a   Lc    1   --   De 
     20  $t                         0x0000c4a0   Lc    1   --   De 
     21  $d                         0x0000c4b8   Lc    1   --   De 
     22  $t                         0x0000c4c2   Lc    1   --   De 
     23  $d                         0x0000c58c   Lc    1   --   De 
     24  $t                         0x0000c59c   Lc    1   --   De 
     25  $d                         0x0000c5c8   Lc    1   --   De 
     26  $t                         0x0000c5d0   Lc    1   --   De 
     27  $d                         0x0000c5ee   Lc    1   --   De 
     28  $t                         0x0000c5f4   Lc    1   --   De 
     29  $d                         0x0000c83e   Lc    1   --   De 
     30  $t                         0x0000c874   Lc    1   --   De 
     31  $d                         0x0000c8b2   Lc    1   --   De 
     32  $t                         0x0000c8b8   Lc    1   --   De 
     33  $d                         0x0000c920   Lc    1   --   De 
     34  $t                         0x0000c93c   Lc    1   --   De 
     35  $d                         0x0000ca82   Lc    1   --   De 
     36  $t                         0x0000caa4   Lc    1   --   De 
     37  $d                         0x0000cbaa   Lc    1   --   De 
     38  $t                         0x0000cbb8   Lc    1   --   De 
     39  $d                         0x0000cbe8   Lc    1   --   De 
     40  $t                         0x0000cbf0   Lc    1   --   De 
     41  $d                         0x0000cc7a   Lc    1   --   De 
     42  $t                         0x0000cc84   Lc    1   --   De 
     43  $d                         0x0000ccb4   Lc    1   --   De 
     44  $t                         0x0000ccbc   Lc    1   --   De 
     45  $d                         0x0000cce0   Lc    1   --   De 
     46  $t                         0x0000cce8   Lc    1   --   De 
     47  $d                         0x0000cd20   Lc    1   --   De 
     48  $t                         0x0000cd28   Lc    1   --   De 
     49  $d                         0x0000cd4c   Lc    1   --   De 
     50  $t                         0x0000cd54   Lc    1   --   De 
     51  $d                         0x0000cd7e   Lc    1   --   De 
     52  $t                         0x0000cd88   Lc    1   --   De 
     53  $d                         0x0000cdc0   Lc    1   --   De 
     54  $t                         0x0000cdc8   Lc    1   --   De 
     55  $d                         0x0000ce40   Lc    1   --   De 
     56  $t                         0x0000ce44   Lc    1   --   De 
     57  $d                         0x0000ce8a   Lc    1   --   De 
     58  $t                         0x0000ce94   Lc    1   --   De 
     59  $d                         0x0000cedc   Lc    1   --   De 
     60  $t                         0x0000cee4   Lc    1   --   De 
     61  $d                         0x0000cf36   Lc    1   --   De 
     62  $t                         0x0000cf50   Lc    1   --   De 
     63  $d                         0x0000cfca   Lc    1   --   De 
     64  $t                         0x0000cfe0   Lc    1   --   De 
     65  $d                         0x0000d00c   Lc    1   --   De 
     66  $t                         0x0000d010   Lc    1   --   De 
     67  $d                         0x0000d1d8   Lc    1   --   De 
     68  $t                         0x0000d4e8   Lc    1   --   De 
     69  $d                         0x0000d514   Lc    1   --   De 
     70  $t                         0x0000d51c   Lc    1   --   De 
     71  $d                         0x0000d522   Lc    1   --   De 
     72  $t                         0x0000d528   Lc    1   --   De 
     73  $d                         0x0000d548   Lc    1   --   De 
     74  $t                         0x0000d564   Lc    1   --   De 
     75  $d                         0x0000d984   Lc    1   --   De 
     76  $t                         0x0000d988   Lc    1   --   De 
     77  $d                         0x0000dc98   Lc    1   --   De 
     78  $t                         0x0000dca8   Lc    1   --   De 
     79  $d                         0x0000dd58   Lc    1   --   De 
     80  $t                         0x0000dd60   Lc    1   --   De 
     81  $d                         0x0000de12   Lc    1   --   De 
     82  $t                         0x0000de84   Lc    1   --   De 
     83  $d                         0x0000df5e   Lc    1   --   De 
     84  $t                         0x0000df68   Lc    1   --   De 
     85  $d                         0x0000df76   Lc    1   --   De 
     86  $t                         0x0000df7e   Lc    1   --   De 
     87  $d                         0x0000dfd8   Lc    1   --   De 
     88  $t                         0x0000e0ac   Lc    1   --   De 
     89  $d                         0x0000e224   Lc    1   --   De 
     90  $t                         0x0000e228   Lc    1   --   De 
     91  $d                         0x0000e2a6   Lc    1   --   De 
     92  $t                         0x0000e2aa   Lc    1   --   De 
     93  $d.realdata                0x0000e2e6   Lc    1   --   De 
     94  $d.realdata                0x10000000   Lc    2   --   De 
     95  ..\src\pdm_fft.c           0x00000000   Lc  Abs  File  De 
     96  ../src/pdm_fft.c           0x00000000   Lc  Abs  File  De 
     97  i.am_pdm0_isr              0x0000cfe0   Lc    1  Sect  De 
     98  i.main                     0x0000dca8   Lc    1  Sect  De 
     99  i.pcm_fft_print            0x0000df4c   Lc    1  Sect  De 
    100  i.pdm_config_print         0x0000df68   Lc    1  Sect  De 
    101  .bss                       0x10001098   Lc    3  Sect  De   0x7d00
    102  .data                      0x10000000   Lc    2  Sect  De   0x2c
    103  ..\..\..\..\..\utils\am_util_delay.c
                                    0x00000000   Lc  Abs  File  De 
    104  ../../../../../utils/am_util_delay.c
                                    0x00000000   Lc  Abs  File  De 
    105  i.am_util_delay_ms         0x0000d010   Lc    1  Sect  De 
    106  ..\..\..\..\..\utils\am_util_faultisr.c
                                    0x00000000   Lc  Abs  File  De 
    107  .emb_text                  0x0000c1d8   Lc    1  Sect  De   0x22
    108  $v0                        0x0000c1d8   Lc    1   --   De 
    109  ../../../../../utils/am_util_faultisr.c
                                    0x00000000   Lc  Abs  File  De 
    110  i.am_util_faultisr_collect_data
                                    0x0000d030   Lc    1  Sect  De 
    111  ../../../../../utils/am_util_stdio.c
                                    0x00000000   Lc  Abs  File  De 
    112  i.am_util_stdio_printf     0x0000d4e8   Lc    1  Sect  De 
    113  i.am_util_stdio_printf_init
                                    0x0000d51c   Lc    1  Sect  De 
    114  i.am_util_stdio_terminal_clear
                                    0x0000d528   Lc    1  Sect  De 
    115  i.am_util_stdio_vsprintf   0x0000d564   Lc    1  Sect  De 
    116  i.ndigits_in_u64           0x0000de84   Lc    1  Sect  De 
    117  ndigits_in_u64             0x0000de85   Lc    1  Code  De   0xc6
    118  i.uint64_to_str            0x0000e0ac   Lc    1  Sect  De 
    119  uint64_to_str              0x0000e0ad   Lc    1  Code  De   0x126
    120  .bss                       0x10008d98   Lc    3  Sect  De   0x100
    121  g_prfbuf                   0x10008d98   Lc    3  Data  De   0x100
    122  .data                      0x1000002c   Lc    2  Sect  De   0x8
    123  g_bTxtXlate                0x1000002c   Lc    2  Data  De   0x1
    124  ../keil/startup_keil.s     0x00000000   Lc  Abs  File  De 
    125  STACK                      0x10000098   Lc    3  Sect  De   0x1000
    126  StackMem                   0x10000098   Lc    3  Data  De 
    127  HEAP                       0x10009708   Lc    3  Sect  De 
    128  HeapMem                    0x10009708   Lc    3  Data  De 
    129  RESET                      0x0000c000   Lc    1  Sect  De   0x138
    130  $v0                        0x0000c100   Lc    1   --   De 
    131  .text                      0x0000c214   Lc    1  Sect  De   0x18
    132  $v0                        0x0000c214   Lc    1   --   De 
    133  ..\\..\\..\\..\\..\\devices\\am_devices_led.c
                                    0x00000000   Lc  Abs  File  De 
    134  ..\..\..\..\..\devices\am_devices_led.c
                                    0x00000000   Lc  Abs  File  De 
    135  i.am_devices_led_array_init
                                    0x0000c2e4   Lc    1  Sect  De 
    136  i.am_devices_led_array_out 0x0000c36c   Lc    1  Sect  De 
    137  i.am_devices_led_off       0x0000c3e4   Lc    1  Sect  De 
    138  i.am_devices_led_on        0x0000c412   Lc    1  Sect  De 
    139  ..\\..\\..\\..\\..\\devices\\am_devices_button.c
                                    0x00000000   Lc  Abs  File  De 
    140  ..\..\..\..\..\devices\am_devices_button.c
                                    0x00000000   Lc  Abs  File  De 
    141  ..\am_hal_global.c         0x00000000   Lc  Abs  File  De 
    142  ../am_hal_global.c         0x00000000   Lc  Abs  File  De 
    143  .data                      0x10000034   Lc    2  Sect  De   0x4
    144  ..\am_bsp.c                0x00000000   Lc  Abs  File  De 
    145  ../am_bsp.c                0x00000000   Lc  Abs  File  De 
    146  i.am_bsp_itm_printf_enable 0x0000c2a8   Lc    1  Sect  De 
    147  .bss                       0x10008e98   Lc    3  Sect  De   0x400
    148  pui8UartTxBuffer           0x10008e98   Lc    3  Data  De   0x400
    149  .bss                       0x10009298   Lc    3  Sect  De   0x400
    150  pui8UartRxBuffer           0x10009298   Lc    3  Data  De   0x400
    151  .data                      0x10000038   Lc    2  Sect  De   0x58
    152  g_ui32PrintInterface       0x10000038   Lc    2  Data  De   0x4
    153  g_sCOMUART                 0x1000003c   Lc    2  Data  De   0x4
    154  g_sBspUartBufferedConfig   0x10000068   Lc    2  Data  De   0x28
    155  ..\am_hal_cachectrl.c      0x00000000   Lc  Abs  File  De 
    156  ../am_hal_cachectrl.c      0x00000000   Lc  Abs  File  De 
    157  i.am_hal_cachectrl_config  0x0000c440   Lc    1  Sect  De 
    158  i.am_hal_cachectrl_enable  0x0000c48c   Lc    1  Sect  De 
    159  .constdata                 0x0000e2e6   Lc    1  Sect  De   0x3
    160  ..\am_hal_clkgen.c         0x00000000   Lc  Abs  File  De 
    161  ../am_hal_clkgen.c         0x00000000   Lc  Abs  File  De 
    162  i.am_hal_clkgen_control    0x0000c4a0   Lc    1  Sect  De 
    163  i.am_hal_clkgen_status_get 0x0000c59c   Lc    1  Sect  De 
    164  ..\am_hal_flash.c          0x00000000   Lc  Abs  File  De 
    165  ../am_hal_flash.c          0x00000000   Lc  Abs  File  De 
    166  i.am_hal_flash_delay       0x0000c5d0   Lc    1  Sect  De 
    167  ..\am_hal_gpio.c           0x00000000   Lc  Abs  File  De 
    168  ../am_hal_gpio.c           0x00000000   Lc  Abs  File  De 
    169  i.am_hal_gpio_pinconfig    0x0000c5f4   Lc    1  Sect  De 
    170  i.am_hal_gpio_state_write  0x0000c874   Lc    1  Sect  De 
    171  .constdata                 0x0000e2ec   Lc    1  Sect  De   0x162
    172  g_ui8Inpen                 0x0000e2f0   Lc    1  Data  De   0x32
    173  g_ui8Bit76Capabilities     0x0000e322   Lc    1  Data  De   0x32
    174  g_ui8nCEpins               0x0000e354   Lc    1  Data  De   0x32
    175  g_ui8NCEtable              0x0000e386   Lc    1  Data  De   0xc8
    176  .constdata                 0x0000e450   Lc    1  Sect  De   0x4
    177  .constdata                 0x0000e454   Lc    1  Sect  De   0x4
    178  ..\am_hal_interrupt.c      0x00000000   Lc  Abs  File  De 
    179  .emb_text                  0x0000c1fc   Lc    1  Sect  De   0x16
    180  $v0                        0x0000c1fc   Lc    1   --   De 
    181  ../am_hal_interrupt.c      0x00000000   Lc  Abs  File  De 
    182  ..\am_hal_mcuctrl.c        0x00000000   Lc  Abs  File  De 
    183  ../am_hal_mcuctrl.c        0x00000000   Lc  Abs  File  De 
    184  i.am_hal_mcuctrl_info_get  0x0000c96c   Lc    1  Sect  De 
    185  .constdata                 0x0000e458   Lc    1  Sect  De   0x80
    186  ..\am_hal_pdm.c            0x00000000   Lc  Abs  File  De 
    187  ../am_hal_pdm.c            0x00000000   Lc  Abs  File  De 
    188  i.am_hal_pdm_configure     0x0000caa4   Lc    1  Sect  De 
    189  i.am_hal_pdm_disable       0x0000cbb8   Lc    1  Sect  De 
    190  i.am_hal_pdm_dma_start     0x0000cbf0   Lc    1  Sect  De 
    191  i.am_hal_pdm_enable        0x0000cc84   Lc    1  Sect  De 
    192  i.am_hal_pdm_fifo_flush    0x0000ccbc   Lc    1  Sect  De 
    193  i.am_hal_pdm_initialize    0x0000cce8   Lc    1  Sect  De 
    194  i.am_hal_pdm_interrupt_clear
                                    0x0000cd28   Lc    1  Sect  De 
    195  i.am_hal_pdm_interrupt_enable
                                    0x0000cd54   Lc    1  Sect  De 
    196  i.am_hal_pdm_interrupt_status_get
                                    0x0000cd88   Lc    1  Sect  De 
    197  i.am_hal_pdm_power_control 0x0000cdc8   Lc    1  Sect  De 
    198  .bss                       0x10009698   Lc    3  Sect  De   0xc
    199  ..\am_hal_sysctrl.c        0x00000000   Lc  Abs  File  De 
    200  ../am_hal_sysctrl.c        0x00000000   Lc  Abs  File  De 
    201  i.am_hal_sysctrl_sleep     0x0000cee4   Lc    1  Sect  De 
    202  .data                      0x10000090   Lc    2  Sect  De   0x4
    203  g_ui32BusWriteFlush        0x10000090   Lc    2  Data  De   0x4
    204  ..\am_bsp_pins.c           0x00000000   Lc  Abs  File  De 
    205  ../am_bsp_pins.c           0x00000000   Lc  Abs  File  De 
    206  .constdata                 0x0000e4d8   Lc    1  Sect  De   0x4
    207  ..\am_hal_itm.c            0x00000000   Lc  Abs  File  De 
    208  ../am_hal_itm.c            0x00000000   Lc  Abs  File  De 
    209  i.am_hal_itm_enable        0x0000c8f4   Lc    1  Sect  De 
    210  i.am_hal_itm_print         0x0000c93c   Lc    1  Sect  De 
    211  ..\am_hal_pwrctrl.c        0x00000000   Lc  Abs  File  De 
    212  ../am_hal_pwrctrl.c        0x00000000   Lc  Abs  File  De 
    213  i.am_hal_pwrctrl_periph_disable
                                    0x0000ce44   Lc    1  Sect  De 
    214  i.am_hal_pwrctrl_periph_enable
                                    0x0000ce94   Lc    1  Sect  De 
    215  .constdata                 0x0000e4dc   Lc    1  Sect  De   0x264
    216  ..\am_hal_reset.c          0x00000000   Lc  Abs  File  De 
    217  ../am_hal_reset.c          0x00000000   Lc  Abs  File  De 
    218  .data                      0x10000094   Lc    2  Sect  De   0x4
    219  ..\am_hal_rtc.c            0x00000000   Lc  Abs  File  De 
    220  ../am_hal_rtc.c            0x00000000   Lc  Abs  File  De 
    221  ..\am_hal_tpiu.c           0x00000000   Lc  Abs  File  De 
    222  ../am_hal_tpiu.c           0x00000000   Lc  Abs  File  De 
    223  i.am_hal_tpiu_enable       0x0000cf50   Lc    1  Sect  De 
    224  ..\am_hal_uart.c           0x00000000   Lc  Abs  File  De 
    225  ../am_hal_uart.c           0x00000000   Lc  Abs  File  De 
    226  ..\am_hal_queue.c          0x00000000   Lc  Abs  File  De 
    227  ../am_hal_queue.c          0x00000000   Lc  Abs  File  De 
    228  dc.s                       0x00000000   Lc  Abs  File  De 
    229  ../clib/longlong.s         0x00000000   Lc  Abs  File  De 
    230  ../clib/longlong.s         0x00000000   Lc  Abs  File  De 
    231  ../clib/heapaux.c          0x00000000   Lc  Abs  File  De 
    232  .text                      0x0000c22c   Lc    1  Sect  De 
    233  ../clib/angel/startup.s    0x00000000   Lc  Abs  File  De 
    234  !!!main                    0x0000c138   Lc    1  Sect  De   0x8
    235  ../fplib/d2f.s             0x00000000   Lc  Abs  File  De 
    236  x$fpl$d2f                  0x0000e1d4   Lc    1  Sect  De   0x62
    237  $v0                        0x0000e1d4   Lc    1   --   De 
    238  ../clib/angel/kernel.s     0x00000000   Lc  Abs  File  De 
    239  .ARM.Collect$$rtentry$$00000000
                                    0x0000c1b8   Lc    1  Sect  De 
    240  ../fplib/dnaninf.s         0x00000000   Lc  Abs  File  De 
    241  x$fpl$dnaninf              0x0000e236   Lc    1  Sect  De   0x9c
    242  $v0                        0x0000e236   Lc    1   --   De 
    243  ../fplib/fretinf.s         0x00000000   Lc  Abs  File  De 
    244  x$fpl$fretinf              0x0000e2dc   Lc    1  Sect  De   0xa
    245  $v0                        0x0000e2dc   Lc    1   --   De 
    246  ../fplib/usenofp.s         0x00000000   Lc  Abs  File  De 
    247  x$fpl$usenofp              0x0000e2e6   Lc    1  Sect  De 
    248  ../clib/angel/kernel.s     0x00000000   Lc  Abs  File  De 
    249  .ARM.Collect$$rtentry$$00000002
                                    0x0000c1b8   Lc    1  Sect  De 
    250  .ARM.Collect$$rtentry$$00000009
                                    0x0000c1be   Lc    1  Sect  De 
    251  .ARM.Collect$$rtentry$$0000000A
                                    0x0000c1be   Lc    1  Sect  De   0x4
    252  .ARM.Collect$$rtentry$$0000000C
                                    0x0000c1c2   Lc    1  Sect  De 
    253  .ARM.Collect$$rtentry$$0000000D
                                    0x0000c1c2   Lc    1  Sect  De   0x8
    254  ../clib/angel/kernel.s     0x00000000   Lc  Abs  File  De 
    255  .ARM.Collect$$rtentry$$00000004
                                    0x0000c1b8   Lc    1  Sect  De   0x6
    256  ../clib/angel/sys.s        0x00000000   Lc  Abs  File  De 
    257  .text                      0x0000c232   Lc    1  Sect  De   0x4a
    258  ../clib/stdlib.c           0x00000000   Lc  Abs  File  De 
    259  .text                      0x0000c27c   Lc    1  Sect  De 
    260  ../clib/angel/boardlib.s   0x00000000   Lc  Abs  File  De 
    261  ../clib/angel/boardlib.s   0x00000000   Lc  Abs  File  De 
    262  ../clib/angel/boardlib.s   0x00000000   Lc  Abs  File  De 
    263  ../clib/libinit.s          0x00000000   Lc  Abs  File  De 
    264  .ARM.Collect$$libinit$$00000000
                                    0x0000c1ac   Lc    1  Sect  De   0x2
    265  ../clib/angel/sys.s        0x00000000   Lc  Abs  File  De 
    266  .text                      0x0000c290   Lc    1  Sect  De   0x8
    267  .bss                       0x100096a4   Lc    3  Sect  De   0x60
    268  ../clib/angel/kernel.s     0x00000000   Lc  Abs  File  De 
    269  .ARM.Collect$$rtexit$$00000000
                                    0x0000c1ca   Lc    1  Sect  De   0x2
    270  ../clib/libinit.s          0x00000000   Lc  Abs  File  De 
    271  .ARM.Collect$$libinit$$00000001
                                    0x0000c1ae   Lc    1  Sect  De   0x4
    272  .ARM.Collect$$libinit$$00000004
                                    0x0000c1b2   Lc    1  Sect  De 
    273  .ARM.Collect$$libinit$$0000000A
                                    0x0000c1b2   Lc    1  Sect  De 
    274  .ARM.Collect$$libinit$$0000000C
                                    0x0000c1b2   Lc    1  Sect  De 
    275  .ARM.Collect$$libinit$$0000000E
                                    0x0000c1b2   Lc    1  Sect  De 
    276  .ARM.Collect$$libinit$$00000011
                                    0x0000c1b2   Lc    1  Sect  De 
    277  .ARM.Collect$$libinit$$00000013
                                    0x0000c1b2   Lc    1  Sect  De 
    278  .ARM.Collect$$libinit$$00000015
                                    0x0000c1b2   Lc    1  Sect  De 
    279  .ARM.Collect$$libinit$$00000017
                                    0x0000c1b2   Lc    1  Sect  De 
    280  .ARM.Collect$$libinit$$00000019
                                    0x0000c1b2   Lc    1  Sect  De 
    281  .ARM.Collect$$libinit$$0000001B
                                    0x0000c1b2   Lc    1  Sect  De 
    282  .ARM.Collect$$libinit$$0000001D
                                    0x0000c1b2   Lc    1  Sect  De 
    283  .ARM.Collect$$libinit$$0000001F
                                    0x0000c1b2   Lc    1  Sect  De 
    284  .ARM.Collect$$libinit$$00000021
                                    0x0000c1b2   Lc    1  Sect  De 
    285  .ARM.Collect$$libinit$$00000023
                                    0x0000c1b2   Lc    1  Sect  De 
    286  .ARM.Collect$$libinit$$00000025
                                    0x0000c1b2   Lc    1  Sect  De 
    287  .ARM.Collect$$libinit$$0000002C
                                    0x0000c1b2   Lc    1  Sect  De 
    288  .ARM.Collect$$libinit$$0000002E
                                    0x0000c1b2   Lc    1  Sect  De 
    289  .ARM.Collect$$libinit$$00000030
                                    0x0000c1b2   Lc    1  Sect  De 
    290  .ARM.Collect$$libinit$$00000032
                                    0x0000c1b2   Lc    1  Sect  De 
    291  .ARM.Collect$$libinit$$00000033
                                    0x0000c1b2   Lc    1  Sect  De   0x2
    292  ../clib/angel/kernel.s     0x00000000   Lc  Abs  File  De 
    293  .ARM.Collect$$rtexit$$00000002
                                    0x0000c1cc   Lc    1  Sect  De 
    294  .ARM.Collect$$rtexit$$00000003
                                    0x0000c1cc   Lc    1  Sect  De   0x4
    295  .ARM.Collect$$rtexit$$00000004
                                    0x0000c1d0   Lc    1  Sect  De   0x6
    296  ../clib/armsys.c           0x00000000   Lc  Abs  File  De 
    297  ../clib/armsys.c           0x00000000   Lc  Abs  File  De 
    298  ../fplib/fpinit.s          0x00000000   Lc  Abs  File  De 
    299  x$fpl$fpinit               0x0000e2d2   Lc    1  Sect  De   0xa
    300  $v0                        0x0000e2d2   Lc    1   --   De 
    301  ../clib/angel/sysapp.c     0x00000000   Lc  Abs  File  De 
    302  .text                      0x0000c298   Lc    1  Sect  De 
    303  ../clib/angel/boardlib.s   0x00000000   Lc  Abs  File  De 
    304  ../clib/armsys.c           0x00000000   Lc  Abs  File  De 
    305  ../clib/armsys.c           0x00000000   Lc  Abs  File  De 
    306  ../clib/libinit.s          0x00000000   Lc  Abs  File  De 
    307  .ARM.Collect$$libshutdown$$00000000
                                    0x0000c1b4   Lc    1  Sect  De   0x2
    308  ../clib/angel/sysapp.c     0x00000000   Lc  Abs  File  De 
    309  ../clib/angel/sys.s        0x00000000   Lc  Abs  File  De 
    310  .text                      0x0000c2a4   Lc    1  Sect  De   0x2
    311  ../clib/angel/sys.s        0x00000000   Lc  Abs  File  De 
    312  .text                      0x0000c2a6   Lc    1  Sect  De 
    313  ../clib/heapalloc.c        0x00000000   Lc  Abs  File  De 
    314  ../clib/signal.c           0x00000000   Lc  Abs  File  De 
    315  ../clib/signal.c           0x00000000   Lc  Abs  File  De 
    316  ../clib/libinit.s          0x00000000   Lc  Abs  File  De 
    317  .ARM.Collect$$libshutdown$$00000002
                                    0x0000c1b6   Lc    1  Sect  De 
    318  .ARM.Collect$$libshutdown$$00000004
                                    0x0000c1b6   Lc    1  Sect  De 
    319  .ARM.Collect$$libshutdown$$00000007
                                    0x0000c1b6   Lc    1  Sect  De 
    320  .ARM.Collect$$libshutdown$$0000000A
                                    0x0000c1b6   Lc    1  Sect  De 
    321  .ARM.Collect$$libshutdown$$0000000C
                                    0x0000c1b6   Lc    1  Sect  De 
    322  .ARM.Collect$$libshutdown$$0000000F
                                    0x0000c1b6   Lc    1  Sect  De 
    323  .ARM.Collect$$libshutdown$$00000010
                                    0x0000c1b6   Lc    1  Sect  De   0x2
    324  ../clib/angel/rt.s         0x00000000   Lc  Abs  File  De 
    325  ../clib/signal.c           0x00000000   Lc  Abs  File  De 
    326  ../clib/signal.c           0x00000000   Lc  Abs  File  De 
    327  ../clib/signal.c           0x00000000   Lc  Abs  File  De 
    328  ../clib/signal.c           0x00000000   Lc  Abs  File  De 
    329  ../clib/angel/sysapp.c     0x00000000   Lc  Abs  File  De 
    330  ../clib/signal.s           0x00000000   Lc  Abs  File  De 
    331  ../clib/signal.c           0x00000000   Lc  Abs  File  De 
    332  ../clib/signal.c           0x00000000   Lc  Abs  File  De 
    333  ../clib/signal.c           0x00000000   Lc  Abs  File  De 
    334  ../clib/signal.c           0x00000000   Lc  Abs  File  De 
    335  ../clib/signal.c           0x00000000   Lc  Abs  File  De 
    336  ../clib/signal.c           0x00000000   Lc  Abs  File  De 
    337  ../clib/signal.c           0x00000000   Lc  Abs  File  De 
    338  ../clib/signal.c           0x00000000   Lc  Abs  File  De 
    339  ../clib/angel/scatter.s    0x00000000   Lc  Abs  File  De 
    340  !!!scatter                 0x0000c140   Lc    1  Sect  De   0x34
    341  ../clib/angel/handlers.s   0x00000000   Lc  Abs  File  De 
    342  !!handler_copy             0x0000c174   Lc    1  Sect  De   0x1a
    343  ../clib/angel/handlers.s   0x00000000   Lc  Abs  File  De 
    344  !!handler_zi               0x0000c190   Lc    1  Sect  De   0x1c
    345  BuildAttributes$$THM_ISAv4$E$P$D$K$B$S$7EM$VFPi3$EXTD16$VFPS$VFMA$PE$A:L22UL41UL21$X:L11$S22US41US21$IEEE1$IW$USESV6$~STKCKD$USESV7$~SHL$OTIME$ROPI$EBA8$UX$STANDARDLIB$REQ8$PRES8$EABIv2
                                    0x00000000   Gb  Abs   --   Hi 
    346  __ARM_use_no_argv          0x00000000   Gb  Abs   --   Hi 
    347  __Vectors                  0x0000c000   Gb    1  Data  Hi 
    348  __Patchable                0x0000c0c0   Gb    1  Data  Hi 
    349  Reset_Handler              0x0000c101   Wk    1  Code  Hi   0x1c
    350  NMI_Handler                0x0000c11f   Wk    1  Code  Hi   0x2
    351  MemManage_Handler          0x0000c121   Wk    1  Code  Hi   0x2
    352  BusFault_Handler           0x0000c123   Wk    1  Code  Hi   0x2
    353  UsageFault_Handler         0x0000c125   Wk    1  Code  Hi   0x2
    354  SecureFault_Handler        0x0000c127   Wk    1  Code  Hi   0x2
    355  SVC_Handler                0x0000c129   Wk    1  Code  Hi   0x2
    356  DebugMon_Handler           0x0000c12b   Wk    1  Code  Hi   0x2
    357  PendSV_Handler             0x0000c12d   Wk    1  Code  Hi   0x2
    358  SysTick_Handler            0x0000c12f   Wk    1  Code  Hi   0x2
    359  am_adc_isr                 0x0000c131   Wk    1  Code  Hi 
    360  am_ble_isr                 0x0000c131   Wk    1  Code  Hi 
    361  am_brownout_isr            0x0000c131   Wk    1  Code  Hi 
    362  am_clkgen_isr              0x0000c131   Wk    1  Code  Hi 
    363  am_ctimer_isr              0x0000c131   Wk    1  Code  Hi 
    364  am_gpio_isr                0x0000c131   Wk    1  Code  Hi 
    365  am_iomaster0_isr           0x0000c131   Wk    1  Code  Hi 
    366  am_iomaster1_isr           0x0000c131   Wk    1  Code  Hi 
    367  am_iomaster2_isr           0x0000c131   Wk    1  Code  Hi 
    368  am_iomaster3_isr           0x0000c131   Wk    1  Code  Hi 
    369  am_iomaster4_isr           0x0000c131   Wk    1  Code  Hi 
    370  am_iomaster5_isr           0x0000c131   Wk    1  Code  Hi 
    371  am_ioslave_acc_isr         0x0000c131   Wk    1  Code  Hi 
    372  am_ioslave_ios_isr         0x0000c131   Wk    1  Code  Hi 
    373  am_mspi0_isr               0x0000c131   Wk    1  Code  Hi 
    374  am_rtc_isr                 0x0000c131   Wk    1  Code  Hi 
    375  am_scard_isr               0x0000c131   Wk    1  Code  Hi 
    376  am_software0_isr           0x0000c131   Wk    1  Code  Hi 
    377  am_stimer_cmpr0_isr        0x0000c131   Wk    1  Code  Hi 
    378  am_stimer_cmpr1_isr        0x0000c131   Wk    1  Code  Hi 
    379  am_stimer_cmpr2_isr        0x0000c131   Wk    1  Code  Hi 
    380  am_stimer_cmpr3_isr        0x0000c131   Wk    1  Code  Hi 
    381  am_stimer_cmpr4_isr        0x0000c131   Wk    1  Code  Hi 
    382  am_stimer_cmpr5_isr        0x0000c131   Wk    1  Code  Hi 
    383  am_stimer_cmpr6_isr        0x0000c131   Wk    1  Code  Hi 
    384  am_stimer_cmpr7_isr        0x0000c131   Wk    1  Code  Hi 
    385  am_stimer_isr              0x0000c131   Wk    1  Code  Hi 
    386  am_uart0_isr               0x0000c131   Wk    1  Code  Hi 
    387  am_uart1_isr               0x0000c131   Wk    1  Code  Hi 
    388  am_uart_isr                0x0000c131   Wk    1  Code  Hi 
    389  am_vcomp_isr               0x0000c131   Wk    1  Code  Hi 
    390  am_watchdog_isr            0x0000c131   Wk    1  Code  Hi 
    391  __main                     0x0000c139   Gb    1  Code  Hi   0x8
    392  __scatterload              0x0000c141   Gb    1  Code  Hi 
    393  __scatterload_rt2          0x0000c141   Gb    1  Code  Hi   0x2c
    394  __scatterload_rt2_thumb_only
                                    0x0000c141   Gb    1  Code  Hi 
    395  __scatterload_null         0x0000c14f   Gb    1  Code  Hi 
    396  __scatterload_copy         0x0000c175   Gb    1  Code  Hi   0x1a
    397  __scatterload_zeroinit     0x0000c191   Gb    1  Code  Hi   0x1c
    398  __rt_lib_init              0x0000c1ad   Gb    1  Code  De 
    399  __rt_lib_init_fp_1         0x0000c1af   Gb    1  Code  Hi 
    400  __rt_lib_init_alloca_1     0x0000c1b3   Gb    1  Code  Hi 
    401  __rt_lib_init_argv_1       0x0000c1b3   Gb    1  Code  Hi 
    402  __rt_lib_init_atexit_1     0x0000c1b3   Gb    1  Code  Hi 
    403  __rt_lib_init_clock_1      0x0000c1b3   Gb    1  Code  Hi 
    404  __rt_lib_init_cpp_1        0x0000c1b3   Gb    1  Code  Hi 
    405  __rt_lib_init_exceptions_1 0x0000c1b3   Gb    1  Code  Hi 
    406  __rt_lib_init_fp_trap_1    0x0000c1b3   Gb    1  Code  Hi 
    407  __rt_lib_init_getenv_1     0x0000c1b3   Gb    1  Code  Hi 
    408  __rt_lib_init_heap_1       0x0000c1b3   Gb    1  Code  Hi 
    409  __rt_lib_init_lc_collate_1 0x0000c1b3   Gb    1  Code  Hi 
    410  __rt_lib_init_lc_ctype_1   0x0000c1b3   Gb    1  Code  Hi 
    411  __rt_lib_init_lc_monetary_1
                                    0x0000c1b3   Gb    1  Code  Hi 
    412  __rt_lib_init_lc_numeric_1 0x0000c1b3   Gb    1  Code  Hi 
    413  __rt_lib_init_lc_time_1    0x0000c1b3   Gb    1  Code  Hi 
    414  __rt_lib_init_preinit_1    0x0000c1b3   Gb    1  Code  Hi 
    415  __rt_lib_init_rand_1       0x0000c1b3   Gb    1  Code  Hi 
    416  __rt_lib_init_return       0x0000c1b3   Gb    1  Code  Hi 
    417  __rt_lib_init_signal_1     0x0000c1b3   Gb    1  Code  Hi 
    418  __rt_lib_init_stdio_1      0x0000c1b3   Gb    1  Code  Hi 
    419  __rt_lib_init_user_alloc_1 0x0000c1b3   Gb    1  Code  Hi 
    420  __rt_lib_shutdown          0x0000c1b5   Gb    1  Code  De 
    421  __rt_lib_shutdown_cpp_1    0x0000c1b7   Gb    1  Code  Hi 
    422  __rt_lib_shutdown_fp_trap_1
                                    0x0000c1b7   Gb    1  Code  Hi 
    423  __rt_lib_shutdown_heap_1   0x0000c1b7   Gb    1  Code  Hi 
    424  __rt_lib_shutdown_return   0x0000c1b7   Gb    1  Code  Hi 
    425  __rt_lib_shutdown_signal_1 0x0000c1b7   Gb    1  Code  Hi 
    426  __rt_lib_shutdown_stdio_1  0x0000c1b7   Gb    1  Code  Hi 
    427  __rt_lib_shutdown_user_alloc_1
                                    0x0000c1b7   Gb    1  Code  Hi 
    428  __rt_entry                 0x0000c1b9   Gb    1  Code  Hi 
    429  __rt_entry_presh_1         0x0000c1b9   Gb    1  Code  Hi 
    430  __rt_entry_sh              0x0000c1b9   Gb    1  Code  Hi 
    431  __rt_entry_li              0x0000c1bf   Gb    1  Code  Hi 
    432  __rt_entry_postsh_1        0x0000c1bf   Gb    1  Code  Hi 
    433  __rt_entry_main            0x0000c1c3   Gb    1  Code  Hi 
    434  __rt_entry_postli_1        0x0000c1c3   Gb    1  Code  Hi 
    435  __rt_exit                  0x0000c1cb   Gb    1  Code  De 
    436  __rt_exit_ls               0x0000c1cd   Gb    1  Code  Hi 
    437  __rt_exit_prels_1          0x0000c1cd   Gb    1  Code  Hi 
    438  __rt_exit_exit             0x0000c1d1   Gb    1  Code  Hi 
    439  HardFault_Handler          0x0000c1d9   Gb    1  Code  Hi   0x1a
    440  getStackedReg              0x0000c1f3   Gb    1  Code  Hi   0x8
    441  am_hal_interrupt_master_enable
                                    0x0000c1fd   Gb    1  Code  Hi   0x8
    442  am_hal_interrupt_master_disable
                                    0x0000c205   Gb    1  Code  Hi   0x8
    443  am_hal_interrupt_master_set
                                    0x0000c20d   Gb    1  Code  Hi   0x6
    444  __user_initial_stackheap   0x0000c215   Gb    1  Code  Hi   0xa
    445  __use_two_region_memory    0x0000c22d   Gb    1  Code  Hi   0x2
    446  __rt_heap_escrow$2region   0x0000c22f   Gb    1  Code  De   0x2
    447  __rt_heap_expand$2region   0x0000c231   Gb    1  Code  De   0x2
    448  __user_setup_stackheap     0x0000c233   Gb    1  Code  De   0x4a
    449  exit                       0x0000c27d   Gb    1  Code  De   0x12
    450  __user_libspace            0x0000c291   Wk    1  Code  De   0x8
    451  __user_perproc_libspace    0x0000c291   Wk    1  Code  De 
    452  __user_perthread_libspace  0x0000c291   Wk    1  Code  De 
    453  _sys_exit                  0x0000c299   Gb    1  Code  De   0x8
    454  __I$use$semihosting        0x0000c2a5   Gb    1  Code  Hi 
    455  __use_no_semihosting_swi   0x0000c2a5   Gb    1  Code  Hi   0x2
    456  __semihosting_library_function
                                    0x0000c2a7   Gb    1  Code  Hi 
    457  am_bsp_itm_printf_enable   0x0000c2a9   Gb    1  Code  Hi   0x2c
    458  am_devices_led_array_init  0x0000c2e5   Gb    1  Code  Hi   0x80
    459  am_devices_led_array_out   0x0000c36d   Gb    1  Code  Hi   0x78
    460  am_devices_led_off         0x0000c3e5   Gb    1  Code  Hi   0x2e
    461  am_devices_led_on          0x0000c413   Gb    1  Code  Hi   0x2e
    462  am_hal_cachectrl_config    0x0000c441   Gb    1  Code  Hi   0x46
    463  am_hal_cachectrl_enable    0x0000c48d   Gb    1  Code  Hi   0xe
    464  am_hal_clkgen_control      0x0000c4a1   Gb    1  Code  Hi   0xec
    465  am_hal_clkgen_status_get   0x0000c59d   Gb    1  Code  Hi   0x2c
    466  am_hal_flash_delay         0x0000c5d1   Gb    1  Code  Hi   0x1e
    467  am_hal_gpio_pinconfig      0x0000c5f5   Gb    1  Code  Hi   0x24a
    468  am_hal_gpio_state_write    0x0000c875   Gb    1  Code  Hi   0x80
    469  am_hal_itm_enable          0x0000c8f5   Gb    1  Code  Hi   0x2c
    470  am_hal_itm_print           0x0000c93d   Gb    1  Code  Hi   0x30
    471  am_hal_mcuctrl_info_get    0x0000c96d   Gb    1  Code  Hi   0x116
    472  am_hal_pdm_configure       0x0000caa5   Gb    1  Code  Hi   0x106
    473  am_hal_pdm_disable         0x0000cbb9   Gb    1  Code  Hi   0x30
    474  am_hal_pdm_dma_start       0x0000cbf1   Gb    1  Code  Hi   0x8a
    475  am_hal_pdm_enable          0x0000cc85   Gb    1  Code  Hi   0x30
    476  am_hal_pdm_fifo_flush      0x0000ccbd   Gb    1  Code  Hi   0x24
    477  am_hal_pdm_initialize      0x0000cce9   Gb    1  Code  Hi   0x38
    478  am_hal_pdm_interrupt_clear 0x0000cd29   Gb    1  Code  Hi   0x24
    479  am_hal_pdm_interrupt_enable
                                    0x0000cd55   Gb    1  Code  Hi   0x2a
    480  am_hal_pdm_interrupt_status_get
                                    0x0000cd89   Gb    1  Code  Hi   0x38
    481  am_hal_pdm_power_control   0x0000cdc9   Gb    1  Code  Hi   0x78
    482  am_hal_pwrctrl_periph_disable
                                    0x0000ce45   Gb    1  Code  Hi   0x46
    483  am_hal_pwrctrl_periph_enable
                                    0x0000ce95   Gb    1  Code  Hi   0x48
    484  am_hal_sysctrl_sleep       0x0000cee5   Gb    1  Code  Hi   0x52
    485  am_hal_tpiu_enable         0x0000cf51   Gb    1  Code  Hi   0x7a
    486  am_pdm0_isr                0x0000cfe1   Gb    1  Code  Hi   0x2c
    487  am_util_delay_ms           0x0000d011   Gb    1  Code  Hi   0x20
    488  am_util_faultisr_collect_data
                                    0x0000d031   Gb    1  Code  Hi   0x1a8
    489  am_util_stdio_printf       0x0000d4e9   Gb    1  Code  Hi   0x2c
    490  am_util_stdio_printf_init  0x0000d51d   Gb    1  Code  Hi   0x6
    491  am_util_stdio_terminal_clear
                                    0x0000d529   Gb    1  Code  Hi   0x20
    492  am_util_stdio_vsprintf     0x0000d565   Gb    1  Code  Hi   0x734
    493  main                       0x0000dca9   Gb    1  Code  Hi   0x16a
    494  pcm_fft_print              0x0000df4d   Gb    1  Code  Hi   0x12
    495  pdm_config_print           0x0000df69   Gb    1  Code  Hi   0x70
    496  __aeabi_d2f                0x0000e1d5   Gb    1  Code  Hi 
    497  _d2f                       0x0000e1d5   Gb    1  Code  De   0x62
    498  __fpl_dnaninf              0x0000e237   Gb    1  Code  De   0x9c
    499  _fp_init                   0x0000e2d3   Gb    1  Code  De   0xa
    500  __fplib_config_fpu_vfp     0x0000e2db   Gb    1  Code  De 
    501  __fplib_config_pureend_doubles
                                    0x0000e2db   Gb    1  Code  De 
    502  __fpl_fretinf              0x0000e2dd   Gb    1  Code  De   0xa
    503  __I$use$fp                 0x0000e2e6   Gb    1   --   De 
    504  am_hal_cachectrl_defaults  0x0000e2e6   Gb    1  Data  Hi   0x3
    505  g_AM_HAL_GPIO_DISABLE      0x0000e2ec   Gb    1  Data  Hi   0x4
    506  g_AM_HAL_GPIO_TRISTATE     0x0000e450   Gb    1  Data  Hi   0x4
    507  g_AM_HAL_GPIO_OUTPUT       0x0000e454   Gb    1  Data  Hi   0x4
    508  g_am_hal_mcuctrl_flash_size
                                    0x0000e458   Gb    1  Data  Hi   0x40
    509  g_am_hal_mcuctrl_sram_size 0x0000e498   Gb    1  Data  Hi   0x40
    510  g_AM_BSP_GPIO_ITM_SWO      0x0000e4d8   Gb    1  Data  Hi   0x4
    511  am_hal_pwrctrl_peripheral_control
                                    0x0000e4dc   Gb    1  Data  Hi   0xb4
    512  am_hal_pwrctrl_memory_control
                                    0x0000e590   Gb    1  Data  Hi   0x1b0
    513  Region$$Table$$Base        0x0000e740   Gb    1   --   Hi 
    514  Region$$Table$$Limit       0x0000e760   Gb    1   --   Hi 
    515  g_bPDMDataReady            0x10000000   Gb    2  Data  Hi   0x1
    516  value_led                  0x10000004   Gb    2  Data  Hi   0x4
    517  PDMHandle                  0x10000008   Gb    2  Data  Hi   0x4
    518  g_sPdmConfig               0x1000000c   Gb    2  Data  Hi   0x20
    519  g_pfnCharPrint             0x10000030   Gb    2  Data  Hi   0x4
    520  g_ui32HALflags             0x10000034   Gb    2  Data  Hi   0x4
    521  am_bsp_psLEDs              0x10000040   Gb    2  Data  Hi   0x28
    522  gAmHalResetStatus          0x10000094   Gb    2  Data  Hi   0x4
    523  g_ui32PDMDataBuffer        0x10001098   Gb    3  Data  Hi   0x7d00
    524  g_am_hal_pdm_states        0x10009698   Gb    3  Data  Hi   0xc
    525  __libspace_start           0x100096a4   Gb    3  Data  De   0x60
    526  __temporary_stack_top$libspace
                                    0x10009704   Gb    3  Data  De 


** Section #12 '.strtab' (SHT_STRTAB)
    Size   : 8000 bytes

            #  Offset String
        ====================================

            1      1: $d
            2      4: $t
            3      7: $d.realdata
            4     19: ..\src\pdm_fft.c
            5     36: ../src/pdm_fft.c
            6     53: i.am_pdm0_isr
            7     67: i.main
            8     74: i.pcm_fft_print
            9     90: i.pdm_config_print
           10    109: .bss
           11    114: .data
           12    120: ..\..\..\..\..\utils\am_util_delay.c
           13    157: ../../../../../utils/am_util_delay.c
           14    194: i.am_util_delay_ms
           15    213: ..\..\..\..\..\utils\am_util_faultisr.c
           16    253: .emb_text
           17    263: $v0
           18    267: ../../../../../utils/am_util_faultisr.c
           19    307: i.am_util_faultisr_collect_data
           20    339: ../../../../../utils/am_util_stdio.c
           21    376: i.am_util_stdio_printf
           22    399: i.am_util_stdio_printf_init
           23    427: i.am_util_stdio_terminal_clear
           24    458: i.am_util_stdio_vsprintf
           25    483: i.ndigits_in_u64
           26    500: ndigits_in_u64
           27    515: i.uint64_to_str
           28    531: uint64_to_str
           29    545: g_prfbuf
           30    554: g_bTxtXlate
           31    566: ../keil/startup_keil.s
           32    589: STACK
           33    595: StackMem
           34    604: HEAP
           35    609: HeapMem
           36    617: RESET
           37    623: .text
           38    629: ..\\..\\..\\..\\..\\devices\\am_devices_led.c
           39    675: ..\..\..\..\..\devices\am_devices_led.c
           40    715: i.am_devices_led_array_init
           41    743: i.am_devices_led_array_out
           42    770: i.am_devices_led_off
           43    791: i.am_devices_led_on
           44    811: ..\\..\\..\\..\\..\\devices\\am_devices_button.c
           45    860: ..\..\..\..\..\devices\am_devices_button.c
           46    903: ..\am_hal_global.c
           47    922: ../am_hal_global.c
           48    941: ..\am_bsp.c
           49    953: ../am_bsp.c
           50    965: i.am_bsp_itm_printf_enable
           51    992: pui8UartTxBuffer
           52   1009: pui8UartRxBuffer
           53   1026: g_ui32PrintInterface
           54   1047: g_sCOMUART
           55   1058: g_sBspUartBufferedConfig
           56   1083: ..\am_hal_cachectrl.c
           57   1105: ../am_hal_cachectrl.c
           58   1127: i.am_hal_cachectrl_config
           59   1153: i.am_hal_cachectrl_enable
           60   1179: .constdata
           61   1190: ..\am_hal_clkgen.c
           62   1209: ../am_hal_clkgen.c
           63   1228: i.am_hal_clkgen_control
           64   1252: i.am_hal_clkgen_status_get
           65   1279: ..\am_hal_flash.c
           66   1297: ../am_hal_flash.c
           67   1315: i.am_hal_flash_delay
           68   1336: ..\am_hal_gpio.c
           69   1353: ../am_hal_gpio.c
           70   1370: i.am_hal_gpio_pinconfig
           71   1394: i.am_hal_gpio_state_write
           72   1420: g_ui8Inpen
           73   1431: g_ui8Bit76Capabilities
           74   1454: g_ui8nCEpins
           75   1467: g_ui8NCEtable
           76   1481: ..\am_hal_interrupt.c
           77   1503: ../am_hal_interrupt.c
           78   1525: ..\am_hal_mcuctrl.c
           79   1545: ../am_hal_mcuctrl.c
           80   1565: i.am_hal_mcuctrl_info_get
           81   1591: ..\am_hal_pdm.c
           82   1607: ../am_hal_pdm.c
           83   1623: i.am_hal_pdm_configure
           84   1646: i.am_hal_pdm_disable
           85   1667: i.am_hal_pdm_dma_start
           86   1690: i.am_hal_pdm_enable
           87   1710: i.am_hal_pdm_fifo_flush
           88   1734: i.am_hal_pdm_initialize
           89   1758: i.am_hal_pdm_interrupt_clear
           90   1787: i.am_hal_pdm_interrupt_enable
           91   1817: i.am_hal_pdm_interrupt_status_get
           92   1851: i.am_hal_pdm_power_control
           93   1878: ..\am_hal_sysctrl.c
           94   1898: ../am_hal_sysctrl.c
           95   1918: i.am_hal_sysctrl_sleep
           96   1941: g_ui32BusWriteFlush
           97   1961: ..\am_bsp_pins.c
           98   1978: ../am_bsp_pins.c
           99   1995: ..\am_hal_itm.c
          100   2011: ../am_hal_itm.c
          101   2027: i.am_hal_itm_enable
          102   2047: i.am_hal_itm_print
          103   2066: ..\am_hal_pwrctrl.c
          104   2086: ../am_hal_pwrctrl.c
          105   2106: i.am_hal_pwrctrl_periph_disable
          106   2138: i.am_hal_pwrctrl_periph_enable
          107   2169: ..\am_hal_reset.c
          108   2187: ../am_hal_reset.c
          109   2205: ..\am_hal_rtc.c
          110   2221: ../am_hal_rtc.c
          111   2237: ..\am_hal_tpiu.c
          112   2254: ../am_hal_tpiu.c
          113   2271: i.am_hal_tpiu_enable
          114   2292: ..\am_hal_uart.c
          115   2309: ../am_hal_uart.c
          116   2326: ..\am_hal_queue.c
          117   2344: ../am_hal_queue.c
          118   2362: dc.s
          119   2367: ../clib/longlong.s
          120   2386: ../clib/heapaux.c
          121   2404: ../clib/angel/startup.s
          122   2428: !!!main
          123   2436: ../fplib/d2f.s
          124   2451: x$fpl$d2f
          125   2461: ../clib/angel/kernel.s
          126   2484: .ARM.Collect$$rtentry$$00000000
          127   2516: ../fplib/dnaninf.s
          128   2535: x$fpl$dnaninf
          129   2549: ../fplib/fretinf.s
          130   2568: x$fpl$fretinf
          131   2582: ../fplib/usenofp.s
          132   2601: x$fpl$usenofp
          133   2615: .ARM.Collect$$rtentry$$00000002
          134   2647: .ARM.Collect$$rtentry$$00000009
          135   2679: .ARM.Collect$$rtentry$$0000000A
          136   2711: .ARM.Collect$$rtentry$$0000000C
          137   2743: .ARM.Collect$$rtentry$$0000000D
          138   2775: .ARM.Collect$$rtentry$$00000004
          139   2807: ../clib/angel/sys.s
          140   2827: ../clib/stdlib.c
          141   2844: ../clib/angel/boardlib.s
          142   2869: ../clib/libinit.s
          143   2887: .ARM.Collect$$libinit$$00000000
          144   2919: .ARM.Collect$$rtexit$$00000000
          145   2950: .ARM.Collect$$libinit$$00000001
          146   2982: .ARM.Collect$$libinit$$00000004
          147   3014: .ARM.Collect$$libinit$$0000000A
          148   3046: .ARM.Collect$$libinit$$0000000C
          149   3078: .ARM.Collect$$libinit$$0000000E
          150   3110: .ARM.Collect$$libinit$$00000011
          151   3142: .ARM.Collect$$libinit$$00000013
          152   3174: .ARM.Collect$$libinit$$00000015
          153   3206: .ARM.Collect$$libinit$$00000017
          154   3238: .ARM.Collect$$libinit$$00000019
          155   3270: .ARM.Collect$$libinit$$0000001B
          156   3302: .ARM.Collect$$libinit$$0000001D
          157   3334: .ARM.Collect$$libinit$$0000001F
          158   3366: .ARM.Collect$$libinit$$00000021
          159   3398: .ARM.Collect$$libinit$$00000023
          160   3430: .ARM.Collect$$libinit$$00000025
          161   3462: .ARM.Collect$$libinit$$0000002C
          162   3494: .ARM.Collect$$libinit$$0000002E
          163   3526: .ARM.Collect$$libinit$$00000030
          164   3558: .ARM.Collect$$libinit$$00000032
          165   3590: .ARM.Collect$$libinit$$00000033
          166   3622: .ARM.Collect$$rtexit$$00000002
          167   3653: .ARM.Collect$$rtexit$$00000003
          168   3684: .ARM.Collect$$rtexit$$00000004
          169   3715: ../clib/armsys.c
          170   3732: ../fplib/fpinit.s
          171   3750: x$fpl$fpinit
          172   3763: ../clib/angel/sysapp.c
          173   3786: .ARM.Collect$$libshutdown$$00000000
          174   3822: ../clib/heapalloc.c
          175   3842: ../clib/signal.c
          176   3859: .ARM.Collect$$libshutdown$$00000002
          177   3895: .ARM.Collect$$libshutdown$$00000004
          178   3931: .ARM.Collect$$libshutdown$$00000007
          179   3967: .ARM.Collect$$libshutdown$$0000000A
          180   4003: .ARM.Collect$$libshutdown$$0000000C
          181   4039: .ARM.Collect$$libshutdown$$0000000F
          182   4075: .ARM.Collect$$libshutdown$$00000010
          183   4111: ../clib/angel/rt.s
          184   4130: ../clib/signal.s
          185   4147: ../clib/angel/scatter.s
          186   4171: !!!scatter
          187   4182: ../clib/angel/handlers.s
          188   4207: !!handler_copy
          189   4222: !!handler_zi
          190   4235: BuildAttributes$$THM_ISAv4$E$P$D$K$B$S$7EM$VFPi3$EXTD16$VFPS$VFMA$PE$A:L22UL41UL21$X:L11$S22US41US21$IEEE1$IW$USESV6$~STKCKD$USESV7$~SHL$OTIME$ROPI$EBA8$UX$STANDARDLIB$REQ8$PRES8$EABIv2
          191   4421: __ARM_use_no_argv
          192   4439: __Vectors
          193   4449: __Patchable
          194   4461: Reset_Handler
          195   4475: NMI_Handler
          196   4487: MemManage_Handler
          197   4505: BusFault_Handler
          198   4522: UsageFault_Handler
          199   4541: SecureFault_Handler
          200   4561: SVC_Handler
          201   4573: DebugMon_Handler
          202   4590: PendSV_Handler
          203   4605: SysTick_Handler
          204   4621: am_adc_isr
          205   4632: am_ble_isr
          206   4643: am_brownout_isr
          207   4659: am_clkgen_isr
          208   4673: am_ctimer_isr
          209   4687: am_gpio_isr
          210   4699: am_iomaster0_isr
          211   4716: am_iomaster1_isr
          212   4733: am_iomaster2_isr
          213   4750: am_iomaster3_isr
          214   4767: am_iomaster4_isr
          215   4784: am_iomaster5_isr
          216   4801: am_ioslave_acc_isr
          217   4820: am_ioslave_ios_isr
          218   4839: am_mspi0_isr
          219   4852: am_rtc_isr
          220   4863: am_scard_isr
          221   4876: am_software0_isr
          222   4893: am_stimer_cmpr0_isr
          223   4913: am_stimer_cmpr1_isr
          224   4933: am_stimer_cmpr2_isr
          225   4953: am_stimer_cmpr3_isr
          226   4973: am_stimer_cmpr4_isr
          227   4993: am_stimer_cmpr5_isr
          228   5013: am_stimer_cmpr6_isr
          229   5033: am_stimer_cmpr7_isr
          230   5053: am_stimer_isr
          231   5067: am_uart0_isr
          232   5080: am_uart1_isr
          233   5093: am_uart_isr
          234   5105: am_vcomp_isr
          235   5118: am_watchdog_isr
          236   5134: __main
          237   5141: __scatterload
          238   5155: __scatterload_rt2
          239   5173: __scatterload_rt2_thumb_only
          240   5202: __scatterload_null
          241   5221: __scatterload_copy
          242   5240: __scatterload_zeroinit
          243   5263: __rt_lib_init
          244   5277: __rt_lib_init_fp_1
          245   5296: __rt_lib_init_alloca_1
          246   5319: __rt_lib_init_argv_1
          247   5340: __rt_lib_init_atexit_1
          248   5363: __rt_lib_init_clock_1
          249   5385: __rt_lib_init_cpp_1
          250   5405: __rt_lib_init_exceptions_1
          251   5432: __rt_lib_init_fp_trap_1
          252   5456: __rt_lib_init_getenv_1
          253   5479: __rt_lib_init_heap_1
          254   5500: __rt_lib_init_lc_collate_1
          255   5527: __rt_lib_init_lc_ctype_1
          256   5552: __rt_lib_init_lc_monetary_1
          257   5580: __rt_lib_init_lc_numeric_1
          258   5607: __rt_lib_init_lc_time_1
          259   5631: __rt_lib_init_preinit_1
          260   5655: __rt_lib_init_rand_1
          261   5676: __rt_lib_init_return
          262   5697: __rt_lib_init_signal_1
          263   5720: __rt_lib_init_stdio_1
          264   5742: __rt_lib_init_user_alloc_1
          265   5769: __rt_lib_shutdown
          266   5787: __rt_lib_shutdown_cpp_1
          267   5811: __rt_lib_shutdown_fp_trap_1
          268   5839: __rt_lib_shutdown_heap_1
          269   5864: __rt_lib_shutdown_return
          270   5889: __rt_lib_shutdown_signal_1
          271   5916: __rt_lib_shutdown_stdio_1
          272   5942: __rt_lib_shutdown_user_alloc_1
          273   5973: __rt_entry
          274   5984: __rt_entry_presh_1
          275   6003: __rt_entry_sh
          276   6017: __rt_entry_li
          277   6031: __rt_entry_postsh_1
          278   6051: __rt_entry_main
          279   6067: __rt_entry_postli_1
          280   6087: __rt_exit
          281   6097: __rt_exit_ls
          282   6110: __rt_exit_prels_1
          283   6128: __rt_exit_exit
          284   6143: HardFault_Handler
          285   6161: getStackedReg
          286   6175: am_hal_interrupt_master_enable
          287   6206: am_hal_interrupt_master_disable
          288   6238: am_hal_interrupt_master_set
          289   6266: __user_initial_stackheap
          290   6291: __use_two_region_memory
          291   6315: __rt_heap_escrow$2region
          292   6340: __rt_heap_expand$2region
          293   6365: __user_setup_stackheap
          294   6388: exit
          295   6393: __user_libspace
          296   6409: __user_perproc_libspace
          297   6433: __user_perthread_libspace
          298   6459: _sys_exit
          299   6469: __I$use$semihosting
          300   6489: __use_no_semihosting_swi
          301   6514: __semihosting_library_function
          302   6545: am_bsp_itm_printf_enable
          303   6570: am_devices_led_array_init
          304   6596: am_devices_led_array_out
          305   6621: am_devices_led_off
          306   6640: am_devices_led_on
          307   6658: am_hal_cachectrl_config
          308   6682: am_hal_cachectrl_enable
          309   6706: am_hal_clkgen_control
          310   6728: am_hal_clkgen_status_get
          311   6753: am_hal_flash_delay
          312   6772: am_hal_gpio_pinconfig
          313   6794: am_hal_gpio_state_write
          314   6818: am_hal_itm_enable
          315   6836: am_hal_itm_print
          316   6853: am_hal_mcuctrl_info_get
          317   6877: am_hal_pdm_configure
          318   6898: am_hal_pdm_disable
          319   6917: am_hal_pdm_dma_start
          320   6938: am_hal_pdm_enable
          321   6956: am_hal_pdm_fifo_flush
          322   6978: am_hal_pdm_initialize
          323   7000: am_hal_pdm_interrupt_clear
          324   7027: am_hal_pdm_interrupt_enable
          325   7055: am_hal_pdm_interrupt_status_get
          326   7087: am_hal_pdm_power_control
          327   7112: am_hal_pwrctrl_periph_disable
          328   7142: am_hal_pwrctrl_periph_enable
          329   7171: am_hal_sysctrl_sleep
          330   7192: am_hal_tpiu_enable
          331   7211: am_pdm0_isr
          332   7223: am_util_delay_ms
          333   7240: am_util_faultisr_collect_data
          334   7270: am_util_stdio_printf
          335   7291: am_util_stdio_printf_init
          336   7317: am_util_stdio_terminal_clear
          337   7346: am_util_stdio_vsprintf
          338   7369: main
          339   7374: pcm_fft_print
          340   7388: pdm_config_print
          341   7405: __aeabi_d2f
          342   7417: _d2f
          343   7422: __fpl_dnaninf
          344   7436: _fp_init
          345   7445: __fplib_config_fpu_vfp
          346   7468: __fplib_config_pureend_doubles
          347   7499: __fpl_fretinf
          348   7513: __I$use$fp
          349   7524: am_hal_cachectrl_defaults
          350   7550: g_AM_HAL_GPIO_DISABLE
          351   7572: g_AM_HAL_GPIO_TRISTATE
          352   7595: g_AM_HAL_GPIO_OUTPUT
          353   7616: g_am_hal_mcuctrl_flash_size
          354   7644: g_am_hal_mcuctrl_sram_size
          355   7671: g_AM_BSP_GPIO_ITM_SWO
          356   7693: am_hal_pwrctrl_peripheral_control
          357   7727: am_hal_pwrctrl_memory_control
          358   7757: Region$$Table$$Base
          359   7777: Region$$Table$$Limit
          360   7798: g_bPDMDataReady
          361   7814: value_led
          362   7824: PDMHandle
          363   7834: g_sPdmConfig
          364   7847: g_pfnCharPrint
          365   7862: g_ui32HALflags
          366   7877: am_bsp_psLEDs
          367   7891: gAmHalResetStatus
          368   7909: g_ui32PDMDataBuffer
          369   7929: g_am_hal_pdm_states
          370   7949: __libspace_start
          371   7966: __temporary_stack_top$libspace
          372   7997: 
          373   7998: 
          374   7999: 


** Section #13 '.note' (SHT_NOTE)
    Size   : 28 bytes (alignment 4)


** Section #14 '.comment' (SHT_PROGBITS)
    Size   : 28320 bytes


** Section #15 '.shstrtab' (SHT_STRTAB)
    Size   : 148 bytes

            #  Offset String
        ====================================

            1      1: FLASH
            2      7: SRAM
            3     12: .debug_abbrev
            4     26: .debug_frame
            5     39: .debug_info
            6     51: .debug_line
            7     63: .debug_loc
            8     74: .debug_macinfo
            9     89: .debug_pubnames
           10    105: .symtab
           11    113: .strtab
           12    121: .note
           13    127: .comment
           14    136: .shstrtab
           15    146: 
           16    147: 


